(dp0
Vpto
p1
S'76.5'
p2
sVtcq
p3
S'122.4.3.4'
p4
sVnwr
p5
S'60.32.7.4'
p6
sVmcx
p7
S'63.1.3.1.2.2.6.2.1.49.1'
p8
sVneo
p9
S'8836'
p10
sVcji
p11
S'79.1.1.1.5'
p12
sVmcw
p13
S'1.2.2.2.1.1.5'
p14
sVflh
p15
S'122.2.2'
p16
sVscn
p17
S'46.8.2.2.1.5'
p18
sVssw
p19
S'63.1.3.1.2.2.6.1.13.6.1'
p20
sVnwb
p21
S'63.1.3.3.5.4.3.1'
p22
sVpdu
p23
S'151.2.2.2.1'
p24
sVraf
p25
S'151.2.7.2.2.1.14'
p26
sVnwi
p27
S'37.4.3.5.1.2.2.3.4'
p28
sVsch
p29
S'151.2.6.9'
p30
sVxtw
p31
S'59.1.4'
p32
sVxtu
p33
S'83.1.1.2.2.12'
p34
sVxtt
p35
S'83.1.1.2.2.41'
p36
sVmww
p37
S'38.1.2.2'
p38
sVaud
p39
S'37.4.3.5.1.2.1.1.1.2.1.2.3.1'
p40
sVaug
p41
S'63.1.3.4.1.2.1'
p42
sVmwt
p43
S'37.4.11.1'
p44
sVaui
p45
S'37.4.3.5.1.5.3.1.2.1.1'
p46
sVauh
p47
S'63.1.3.1.2.2.6.1.9.2.1'
p48
sVauk
p49
S'52.2.3.1'
p50
sVauj
p51
S'1.1.1.1.1'
p52
sVaul
p53
S'37.4.3.5.1.2.1.5.3.4.1'
p54
sVxty
p55
S'83.1.1.2.2.49'
p56
sVmcr
p57
S'60.1.2.6'
p58
sVauq
p59
S'37.4.3.5.1.5.2.3.2.1'
p60
sVmwb
p61
S'52.3.4'
p62
sVmwa
p63
S'37.4.3.5.1.5.3.1.2.4.6'
p64
sVaur
p65
S'52.1.2.1'
p66
sVauu
p67
S'60.37.4.1'
p68
sVmwf
p69
S'29.2.4.1'
p70
sVauw
p71
S'53.2.1'
p72
sVxtn
p73
S'83.1.1.2.2.23'
p74
sVmwi
p75
S'37.4.3.5.1.2.1.5.2.1.1'
p76
sVauz
p77
S'1.6.1.2.1.33'
p78
sVmwo
p79
S'37.4.3.5.1.2.1.5.3.2.18'
p80
sVmwn
p81
S'63.1.3.1.2.2.6.1.9.21.1'
p82
sVxti
p83
S'83.1.1.2.2.36'
p84
sVmwl
p85
S'46.8.2.2.2.1.2.3.1.2'
p86
sVmlb
p87
S'63.1.3.1.2.2.6.2.1.55.1'
p88
sVmns
p89
S'92.3'
p90
sVsbi
p91
S'52.7.2'
p92
sVwji
p93
S'1.2.4.2.2.9'
p94
sVlgq
p95
S'63.1.3.4.2.5.4.1'
p96
sVwja
p97
S'63.1.3.5.1.1.9.3.4.3'
p98
sVcwa
p99
S'63.1.3.1.2.2.6.1.6.13.1'
p100
sVfuu
p101
S'67.2.2.1.2.1'
p102
sVcng
p103
S'151.2.4.5.5'
p104
sVava
p105
S'79.1.1.2.1'
p106
sVfur
p107
S'46.8.2.2.2.1.1.2.2.1'
p108
sVscb
p109
S'33.1.9.1.2'
p110
sVnio
p111
S'92.6.1.2'
p112
sVsly
p113
S'37.4.18.3.5'
p114
sVcmn
p115
S'151.1.5'
p116
sVcml
p117
S'37.4.18.1.2'
p118
sVgnt
p119
S'20.1.2.3'
p120
sVcmi
p121
S'101.1.2.2'
p122
sVupi
p123
S'53.1.5'
p124
sVzpj
p125
S'83.1.2.2.2.26'
p126
sVcme
p127
S'63.1.3.5.2.2.2.5.1'
p128
sVmle
p129
S'147.4.9'
p130
sVcdm
p131
S'151.2.7.2.1.1.2'
p132
sVslt
p133
S'151.2.3.3.4.15'
p134
sVmgy
p135
S'63.1.3.1.2.2.6.1.11.12.1'
p136
sVzdj
p137
S'63.1.3.1.2.2.6.1.4.20.4'
p138
sVupv
p139
S'37.4.3.5.1.2.1.5.3.4.13'
p140
sValz
p141
S'67.3.3.3.2.2.3.1.1.1'
p142
sVcmt
p143
S'35.20.1'
p144
sVslv
p145
S'46.3.2.2.2.5'
p146
sVquq
p147
S'8843'
p148
sVpty
p149
S'141.4.7'
p150
sVlvk
p151
S'77.2'
p152
sVgev
p153
S'63.1.3.1.2.2.6.2.2.43.1'
p154
sVcfa
p155
S'63.1.3.5.1.1.9.3.2.1'
p156
sVwfg
p157
S'99.1.3'
p158
sVkqz
p159
S'102.1.2.2.2'
p160
sVslr
p161
S'80.4.4'
p162
sVptv
p163
S'37.4.3.5.1.2.1.5.3.2.26'
p164
sVsls
p165
S'137.113'
p166
sVptu
p167
S'37.4.18.4.4.2'
p168
sVnen
p169
S'37.4.3.5.1.2.1.2.3'
p170
sVfuf
p171
S'63.1.1.2.5.1.1.3.3'
p172
sVptt
p173
S'37.4.18.4.3.2'
p174
sVnej
p175
S'60.13.1.2.4'
p176
sVnek
p177
S'37.4.3.5.1.2.1.4.3.2.1.4'
p178
sVkuw
p179
S'63.1.3.5.1.2.1.1.1.5.3'
p180
sVkuv
p181
S'37.4.3.11.1'
p182
sVkuu
p183
S'14.1.2.12'
p184
sVkut
p185
S'126.38'
p186
sVkus
p187
S'63.1.3.5.2.2.1.3.4.3.5'
p188
sVmlp
p189
S'60.22.1.6.1'
p190
sVnea
p191
S'37.4.3.3.22'
p192
sVkuo
p193
S'60.13.2.3.3'
p194
sVkun
p195
S'67.7.1'
p196
sVkum
p197
S'80.5.2.4'
p198
sVkul
p199
S'1.2.4.1.4.2.2'
p200
sVkuk
p201
S'37.4.3.3.7'
p202
sVkuj
p203
S'63.1.3.1.2.2.6.1.6.18.1'
p204
sVnex
p205
S'20.1.1.5'
p206
sVkuh
p207
S'1.2.4.1.2.2.2.1'
p208
sVnev
p209
S'33.1.2.1.5.3.1'
p210
sVkuf
p211
S'33.1.2.2.2.2.2'
p212
sVkue
p213
S'60.5.1.4'
p214
sVkud
p215
S'37.4.3.5.1.5.3.1.3.9'
p216
sVkuc
p217
S'48.2.3.10'
p218
sVsbm
p219
S'63.1.3.1.2.2.6.1.4.31.1'
p220
sVfuc
p221
S'63.1.1.2.5.1.1.4.1'
p222
sVmee
p223
S'37.4.3.5.1.5.2.2.2.5.3'
p224
sVmed
p225
S'60.5.2.2.1'
p226
sVloo
p227
S'63.1.3.1.2.2.6.2.3.54.1'
p228
sVmeb
p229
S'60.36.2.2'
p230
sVmel
p231
S'37.4.13.1.2.1'
p232
sVmei
p233
S'67.3.1.3.3.1'
p234
sVmeh
p235
S'83.1.1.2.2.39'
p236
sVmek
p237
S'37.4.3.5.1.5.3.2.1.3.2.3'
p238
sVmej
p239
S'145.2.2.1'
p240
sVmeu
p241
S'37.4.3.5.1.5.3.2.1.2.3'
p242
sVmet
p243
S'37.4.3.5.1.5.2.2.2.6.1'
p244
sVmew
p245
S'1.2.4.1.2.1.1.11'
p246
sVmev
p247
S'63.3.1.2.1.2.1.1'
p248
sVmeq
p249
S'1.2.1.1.5.11'
p250
sVmep
p251
S'29.4.3'
p252
sVmes
p253
S'1.2.2.2.1.2.3'
p254
sVmer
p255
S'63.1.3.1.2.2.6.1.2.8.1'
p256
sVxts
p257
S'83.1.1.2.2.35'
p258
sVmey
p259
S'1.6.1.2.1.34'
p260
sVmez
p261
S'5.1.3'
p262
sVakz
p263
S'55.1.1.1.1.1'
p264
sVglj
p265
S'63.1.3.5.1.1.7.1.5'
p266
sVslg
p267
S'37.4.13.2.3.2.1.4'
p268
sVwdd
p269
S'63.1.3.1.2.2.6.2.2.18.1'
p270
sVmwu
p271
S'67.2.2.1.1.3.3'
p272
sVssl
p273
S'63.1.3.5.2.2.2.4.3.6'
p274
sVglo
p275
S'1.2.4.1.2.1.1.5'
p276
sVakr
p277
S'37.4.3.5.1.2.1.5.3.5.4'
p278
sVwdj
p279
S'29.2.1.2.5'
p280
sVakp
p281
S'63.1.3.4.2.5.3.1.2'
p282
sVdru
p283
S'37.8.1'
p284
sVsjw
p285
S'5.1.5'
p286
sVsjt
p287
S'92.5.1.5'
p288
sVglg
p289
S'46.8.2.2.2.1.2.3.3.2'
p290
sVdri
p291
S'63.1.3.1.9.2.3.1'
p292
sVzmb
p293
S'63.1.3.1.2.2.6.1.1.30.1'
p294
sVaki
p295
S'127.3.2.1'
p296
sVakh
p297
S'60.12.1.3'
p298
sVsjo
p299
S'72.2.2.2'
p300
sVdro
p301
S'37.4.13.1.2.2'
p302
sVdrn
p303
S'37.4.3.14.1'
p304
sVsjb
p305
S'37.4.13.3.5'
p306
sVecs
p307
S'137.31'
p308
sVdrc
p309
S'46.8.2.2.2.1.2.3.3.3'
p310
sVaib
p311
S'80.2.1'
p312
sVakg
p313
S'37.4.3.10.2.1'
p314
sVakf
p315
S'63.1.3.1.6.2.1'
p316
sVdrg
p317
S'37.4.13.4.1.2.9'
p318
sVglw
p319
S'1.2.1.1.4.2.1.3'
p320
sVtxo
p321
S'151.2.5.2.2'
p322
sVtxn
p323
S'37.4.3.1.13'
p324
sVtxm
p325
S'37.4.2.3.2.1.3'
p326
sVmwx
p327
S'67.3.3.2.1.2.3.3'
p328
sVbrz
p329
S'37.4.3.5.1.5.2.2.2.1.2.1.1'
p330
sVbry
p331
S'147.4.3'
p332
sVbrv
p333
S'33.1.2.2.3.1.2'
p334
sVbru
p335
S'33.1.2.2.3.1.1'
p336
sVbrt
p337
S'63.1.3.1.2.2.9.5'
p338
sVbrs
p339
S'37.4.2.2.1.1.1'
p340
sVbrr
p341
S'37.4.3.5.1.2.3.1.3.1'
p342
sVtxa
p343
S'37.4.13.4.3.2'
p344
sVbrp
p345
S'149.2'
p346
sVpia
p347
S'96.2.2.1'
p348
sVbrn
p349
S'85.1.1'
p350
sVbrm
p351
S'63.1.3.5.1.2.5.1.1'
p352
sVbrl
p353
S'63.1.3.1.2.2.6.1.13.15.1'
p354
sVbrj
p355
S'37.4.3.5.1.2.1.5.3.3.1.1'
p356
sVtxy
p357
S'37.4.5.2.2.10'
p358
sVtxx
p359
S'37.4.13.4.1.1.2'
p360
sVbrg
p361
S'142.2.3.1.1'
p362
sVbrf
p363
S'63.1.3.1.2.2.6.1.1.13.1'
p364
sVbre
p365
S'46.4.1.1.1'
p366
sVtxt
p367
S'60.2.1.5'
p368
sVbrc
p369
S'133.4.1'
p370
sVbrb
p371
S'33.1.2.1.5.1.3'
p372
sVdne
p373
S'63.1.3.1.2.2.6.1.10.2.1'
p374
sVmwc
p375
S'37.4.3.5.1.5.3.1.2.2.1.1'
p376
sVdng
p377
S'151.1.14'
p378
sVore
p379
S'68.3.2'
p380
sVdna
p381
S'60.37.1.1.3'
p382
sVlwu
p383
S'151.2.3.3.1.13'
p384
sVaup
p385
S'60.35.5'
p386
sVdni
p387
S'60.37.1.1.1'
p388
sVlww
p389
S'37.4.3.5.1.2.1.5.3.3.2.2.2'
p390
sVlwt
p391
S'37.4.3.3.17'
p392
sVdnj
p393
S'63.3.1.2.1.2.2.1'
p394
sVdnu
p395
S'33.1.5.4.2.1.1'
p396
sVdnt
p397
S'60.37.1.1.2'
p398
sVdnw
p399
S'60.37.1.1.4'
p400
sVwmh
p401
S'37.4.3.12.1.13'
p402
sVlwo
p403
S'67.3.3.3.2.1.3.1'
p404
sVlwl
p405
S'33.1.5.4.1.3.2.1'
p406
sVdnr
p407
S'60.22.3.6.1'
p408
sVxtc
p409
S'67.5.2'
p410
sVlmg
p411
S'37.4.3.5.1.5.2.2.2.8.3.1'
p412
sVdny
p413
S'25.1'
p414
sVlwg
p415
S'63.1.3.1.2.2.6.1.6.23.6'
p416
sVase
p417
S'137.6'
p418
sVlwe
p419
S'37.4.3.3.16'
p420
sVkgq
p421
S'60.2.3.1'
p422
sVnka
p423
S'63.1.3.1.2.2.6.1.8.10.1'
p424
sVjmx
p425
S'83.1.1.2.2.48'
p426
sVnkc
p427
S'63.1.3.1.2.2.6.2.1.36.1'
p428
sVkgu
p429
S'60.22.1.7.5.1'
p430
sVkgt
p431
S'63.1.3.1.2.1.3.1.2.4'
p432
sVkgw
p433
S'19.1'
p434
sVnkg
p435
S'60.13.1.2.3'
p436
sVjmr
p437
S'63.1.3.5.2.2.1.3.4.3.3'
p438
sVjms
p439
S'63.1.3.1.2.2.1.4'
p440
sVnkj
p441
S'60.28.2.2.4'
p442
sVnkk
p443
S'37.4.3.5.1.2.1.5.3.5.12'
p444
sVnkm
p445
S'20.1.1.2'
p446
sVnkn
p447
S'63.1.3.1.2.2.6.1.7.8.1'
p448
sVnko
p449
S'63.1.3.4.2.5.6.2.1.13'
p450
sVwmc
p451
S'60.22.1.2.18'
p452
sVkgc
p453
S'33.1.2.2.2.1.1'
p454
sVkgb
p455
S'37.4.3.5.2.2.2.4.4'
p456
sVkge
p457
S'37.4.7.1'
p458
sVkgd
p459
S'33.1.2.2.1.1.2'
p460
sVnkv
p461
S'63.1.3.1.2.2.6.1.9.22.3'
p462
sVkgf
p463
S'60.13.2.1.4'
p464
sVjmb
p465
S'1.2.4.2.2.10'
p466
sVjmc
p467
S'63.1.3.1.2.2.6.1.2.1.1'
p468
sVjma
p469
S'60.32.1.2'
p470
sVxtm
p471
S'83.1.1.2.2.19'
p472
sVjmd
p473
S'37.4.3.9.1.2.1'
p474
sVbnw
p475
S'147.7.2.3'
p476
sVert
p477
S'122.4.3.3'
p478
sVerw
p479
S'37.4.3.5.2.2.1.2'
p480
sVtnq
p481
S'142.1.2.1.3'
p482
sVtnp
p483
S'37.4.3.5.1.2.2.3.5'
p484
sVtns
p485
S'37.4.3.5.1.3.2'
p486
sVtnr
p487
S'63.1.1.2.3.3.3'
p488
sVsvs
p489
S'77.3'
p490
sVtny
p491
S'63.1.3.1.2.2.6.1.3.10.1'
p492
sVtnx
p493
S'37.4.3.5.1.4.2.2'
p494
sVtnz
p495
S'33.1.1.2.3.1'
p496
sVtng
p497
S'1.2.2.1.2.2.3'
p498
sVerg
p499
S'37.4.3.5.1.2.2.2.2'
p500
sVtna
p501
S'24.2.3'
p502
sVxhv
p503
S'33.1.2.2.3.1.3'
p504
sVtnc
p505
S'68.3.4'
p506
sVtnm
p507
S'145.3.2.3'
p508
sVtnl
p509
S'37.4.3.5.1.2.2.3.2'
p510
sVtno
p511
S'24.1.2'
p512
sVtnn
p513
S'37.4.3.5.1.2.2.3.3'
p514
sVtni
p515
S'37.4.3.5.2.2.2.5.1'
p516
sVtnh
p517
S'60.22.1.7.2.2'
p518
sVtnk
p519
S'37.4.3.5.1.2.2.3.1'
p520
sVerk
p521
S'37.4.3.5.1.2.1.5.3.1.2'
p522
sVkqb
p523
S'60.13.2.2.1'
p524
sVjct
p525
S'80.5.2.3'
p526
sVygm
p527
S'60.13.1.5.8'
p528
sVygl
p529
S'52.6.1.9'
p530
sVkeh
p531
S'147.4.7'
p532
sVygw
p533
S'60.1.2.11'
p534
sVygu
p535
S'29.6.8.1'
p536
sVczn
p537
S'83.1.2.2.1.6'
p538
sVygr
p539
S'60.17.1.5.5'
p540
sVmhu
p541
S'151.2.1.1.1'
p542
sVium
p543
S'38.3.2.2'
p544
sVcet
p545
S'126.16'
p546
sVena
p547
S'60.22.4.3.2.1'
p548
sVhod
p549
S'1.2.1.1.8.6'
p550
sVend
p551
S'37.4.3.3.4'
p552
sVenu
p553
S'151.2.3.3.4.6'
p554
sVhoo
p555
S'63.1.3.1.2.2.6.1.1.32.1'
p556
sVhol
p557
S'63.1.3.1.2.2.6.1.8.12.1'
p558
sVhom
p559
S'63.1.3.1.2.2.6.1.1.6.1'
p560
sVenl
p561
S'3.2'
p562
sVhoh
p563
S'1.6.2.2.3'
p564
sVhoi
p565
S'14.1.2.10'
p566
sVhov
p567
S'37.4.13.2.4.1.3.3'
p568
sVmpn
p569
S'37.4.3.5.1.5.2.2.2.1.1.2'
p570
sVhot
p571
S'37.4.3.5.1.5.2.1.4.1.2.1'
p572
sVnru
p573
S'151.2.4.4.2'
p574
sVhos
p575
S'137.50'
p576
sVhop
p577
S'96.1.1'
p578
sVenx
p579
S'3.3'
p580
sVhoz
p581
S'1.5.1.3.2.2'
p582
sVfap
p583
S'63.1.1.2.2.4'
p584
sVnmy
p585
S'151.2.4.4.1'
p586
sVlal
p587
S'63.1.3.1.2.2.6.2.3.26.1'
p588
sVlam
p589
S'63.1.3.1.2.2.6.1.9.10.1'
p590
sVlan
p591
S'63.1.3.1.9.2.4.1'
p592
sVpig
p593
S'95.3'
p594
sVlai
p595
S'63.1.3.1.2.2.6.1.9.19.1'
p596
sVlaj
p597
S'67.3.3.3.2.2.3.1.2.2'
p598
sVlak
p599
S'63.1.3.5.1.1.7.4.4.2'
p600
sVlad
p601
S'46.8.2.2.2.1.2.3.2.2'
p602
sVlaf
p603
S'63.2.4.2.1'
p604
sVlag
p605
S'63.1.3.1.2.2.6.1.3.3.1'
p606
sVgcr
p607
S'133.6.2'
p608
sVlac
p609
S'15.2.4.2.1'
p610
sVlay
p611
S'151.2.4.1.2'
p612
sVlaz
p613
S'37.4.3.5.1.5.2.1.1.1.1.1'
p614
sVknr
p615
S'147.7.1.2'
p616
sVlat
p617
S'46.8.1.1'
p618
sVlau
p619
S'104.1.1.2'
p620
sVlaw
p621
S'37.4.2.3.2.1.2'
p622
sVlar
p623
S'63.1.3.4.2.5.6.2.2.4'
p624
sVlas
p625
S'63.1.3.5.2.2.2.4.1.5'
p626
sVfaj
p627
S'60.22.4.1.1.1'
p628
sVdhi
p629
S'151.2.5.2.1'
p630
sVfak
p631
S'63.1.3.1.2.2.12.2'
p632
sVfah
p633
S'63.1.3.1.14.1'
p634
sVmpu
p635
S'76.6.3'
p636
sVkmn
p637
S'147.6.1'
p638
sVwur
p639
S'29.17.3.5'
p640
sVbyf
p641
S'63.1.3.1.8.1'
p642
sVwuv
p643
S'37.4.3.5.1.1.2.3'
p644
sVwuu
p645
S'151.1.11'
p646
sVwut
p647
S'8.2.1.1.2'
p648
sVwuy
p649
S'37.4.3.5.2.2.2.4.10'
p650
sVwux
p651
S'29.8.2'
p652
sVzen
p653
S'1.1.4.1'
p654
sVwub
p655
S'29.15.6'
p656
sVssf
p657
S'37.11.2.1'
p658
sVzam
p659
S'83.1.2.2.2.20'
p660
sVwud
p661
S'63.1.3.4.1.2.12'
p662
sVzaj
p663
S'63.1.3.1.2.2.6.1.4.25.1'
p664
sVwuh
p665
S'35.5.1'
p666
sVwun
p667
S'63.1.3.1.2.2.6.1.3.9.1'
p668
sVwum
p669
S'63.1.3.1.2.2.6.2.2.9.1'
p670
sVwul
p671
S'60.37.1.2.2'
p672
sVcll
p673
S'63.1.3.5.2.2.2.4.1.2'
p674
sVclm
p675
S'135.1.1'
p676
sVfip
p677
S'63.1.3.1.2.2.6.1.9.7.1'
p678
sVclo
p679
S'40.2'
p680
sVfiw
p681
S'60.9.1'
p682
sVfit
p683
S'92.1.4'
p684
sVclk
p685
S'151.2.1.1.2'
p686
sVimi
p687
S'60.22.4.1.3.2'
p688
sVcle
p689
S'83.2.1.1.4'
p690
sVpga
p691
S'133.2.2'
p692
sVcla
p693
S'1.2.4.1.4.2.4'
p694
sVimo
p695
S'60.5.2.1.2'
p696
sVclc
p697
S'14.1.2.4'
p698
sVimr
p699
S'37.4.3.2.2.2.2'
p700
sVfad
p701
S'60.22.1.2.17'
p702
sVfie
p703
S'1.2.4.1.4.1.1'
p704
sVfij
p705
S'37.4.3.5.1.2.1.1.1.1.1'
p706
sVclw
p707
S'80.5.3.2'
p708
sVfin
p709
S'92.1.2'
p710
sVona
p711
S'109.1.1'
p712
sVmxz
p713
S'37.4.3.2.2.1.2'
p714
sVmxy
p715
S'83.1.1.2.2.37'
p716
sVmxv
p717
S'83.1.1.2.2.20'
p718
sVmxw
p719
S'20.1.1.4'
p720
sVmxt
p721
S'83.1.1.2.2.17'
p722
sVmxu
p723
S'1.2.1.1.5.6'
p724
sVmxr
p725
S'37.4.13.2.4.1.4.1'
p726
sVmxs
p727
S'83.1.1.2.2.14'
p728
sVzac
p729
S'83.1.2.2.2.23'
p730
sVmxn
p731
S'104.2.2'
p732
sVmxo
p733
S'63.1.3.1.2.2.6.1.7.11.1'
p734
sVmxm
p735
S'37.4.3.5.1.5.1.3.3'
p736
sVmxj
p737
S'151.2.1.6.1'
p738
sVmxk
p739
S'52.4.2'
p740
sVmxh
p741
S'67.2.1.3.6'
p742
sVmxg
p743
S'63.1.3.1.2.2.6.1.5.16.1'
p744
sVmxd
p745
S'37.4.13.2.4.1.2.1'
p746
sVmxe
p747
S'37.4.3.5.1.2.1.1.1.2.1.2.3.6'
p748
sVmxb
p749
S'83.1.1.2.2.43'
p750
sVmxc
p751
S'63.1.3.1.2.2.6.1.13.10.1'
p752
sVqun
p753
S'135.3.2.2'
p754
sVpbp
p755
S'63.1.1.2.3.3.1'
p756
sVzwa
p757
S'1.6.2.1.2.2.2.4'
p758
sVzib
p759
S'137.138'
p760
sVyau
p761
S'126.82'
p762
sVssc
p763
S'63.1.3.1.2.2.6.1.6.19.1'
p764
sVasg
p765
S'63.1.3.1.9.2.5.2'
p766
sVpgu
p767
S'104.1.1.5'
p768
sVmdj
p769
S'67.2.1.2.3'
p770
sVdgb
p771
S'63.1.3.2.6'
p772
sVmdi
p773
S'67.2.1.3.4'
p774
sVmdn
p775
S'63.1.3.1.2.2.6.2.3.44.1'
p776
sVmdl
p777
S'137.78'
p778
sVkiz
p779
S'63.1.3.1.2.2.6.1.4.8.1'
p780
sVmdb
p781
S'60.20.6'
p782
sVmdc
p783
S'60.22.3.4.3'
p784
sVmrg
p785
S'151.2.1.8.4'
p786
sVmdf
p787
S'92.3.2'
p788
sVjaq
p789
S'60.23.3.2'
p790
sVmdd
p791
S'63.1.3.5.1.1.7.4.3.1'
p792
sVkqi
p793
S'60.32.3.2.4'
p794
sVmdx
p795
S'1.5.1.1.1'
p796
sVmdy
p797
S'1.5.1.2.1.2.3.1'
p798
sVzaw
p799
S'83.1.2.2.2.21'
p800
sVmdr
p801
S'37.4.18.4.2.1'
p802
sVmds
p803
S'60.32.6.2'
p804
sVmdp
p805
S'63.1.3.1.2.2.6.1.5.11.1'
p806
sVmdq
p807
S'63.1.3.1.2.2.6.1.1.33.1'
p808
sVmdv
p809
S'83.1.1.2.2.32'
p810
sVmdw
p811
S'63.1.3.1.2.2.6.2.3.22.1'
p812
sVmdt
p813
S'63.1.3.1.2.2.6.2.2.14.1'
p814
sVmdu
p815
S'63.1.3.1.2.2.6.2.3.19.1'
p816
sVgol
p817
S'63.1.1.3.2.2.1'
p818
sVgoo
p819
S'37.4.3.5.1.2.1.1.1.1.2'
p820
sVgoi
p821
S'60.10.2'
p822
sVsmz
p823
S'16.2.6'
p824
sVwgb
p825
S'37.4.3.5.1.5.3.1.3.7'
p826
sVajp
p827
S'1.6.1.2.1.27'
p828
sVgod
p829
S'63.1.3.3.2.2.2.3'
p830
sVsmu
p831
S'33.1.2.4.2.2.2'
p832
sVajt
p833
S'1.6.1.2.1.15'
p834
sVaju
p835
S'1.6.1.2.1.13'
p836
sVsmq
p837
S'60.10.6'
p838
sVgob
p839
S'22.1.3'
p840
sVdsn
p841
S'37.4.3.5.2.2.2.1.2'
p842
sVaji
p843
S'37.4.3.5.1.2.1.4.3.2.1.1'
p844
sVdsl
p845
S'137.29'
p846
sVgoy
p847
S'63.1.3.5.1.1.7.3.2'
p848
sVgox
p849
S'63.1.3.5.1.2.1.1.1.5.2'
p850
sVinj
p851
S'123.2.1.1.2'
p852
sVkir
p853
S'80.5.1.3'
p854
sVsmg
p855
S'2.1.5'
p856
sVsmf
p857
S'53.3.2'
p858
sVgow
p859
S'1.3.4.5'
p860
sVsmd
p861
S'63.1.3.1.2.2.6.1.5.8.1'
p862
sVgoq
p863
S'37.4.20.1'
p864
sVgop
p865
S'37.4.3.5.2.2.2.9.1'
p866
sVsma
p867
S'92.5.3.2.1'
p868
sVnty
p869
S'151.2.3.3.3.12'
p870
sVntx
p871
S'151.2.5.4.6.4'
p872
sVkip
p873
S'151.2.7.2.1.2.1.3'
p874
sVjos
p875
S'137.66'
p876
sVdgn
p877
S'29.6.13.1'
p878
sVnts
p879
S'8838'
p880
sVntr
p881
S'63.1.3.5.2.2.2.4.1.3'
p882
sVntu
p883
S'37.4.3.5.1.4.1.4'
p884
sVlrr
p885
S'151.2.7.2.2.1.24'
p886
sVntw
p887
S'50.1.2.1'
p888
sVkiv
p889
S'63.1.3.1.2.2.6.1.3.8.1'
p890
sVnti
p891
S'63.1.3.5.2.10.1'
p892
sVntk
p893
S'63.1.3.1.2.2.6.1.6.21.1'
p894
sVian
p895
S'147.4.6'
p896
sVntm
p897
S'63.1.3.5.2.2.1.3.3.4'
p898
sVobi
p899
S'117.1'
p900
sVnto
p901
S'63.1.3.1.2.2.6.2.3.10.2'
p902
sVcjy
p903
S'151.1.4'
p904
sVnie
p905
S'63.1.3.5.1.1.7.1.7'
p906
sVnte
p907
S'63.1.3.1.2.2.6.1.11.3.1'
p908
sVacp
p909
S'63.1.3.1.9.2.6.1'
p910
sVmvp
p911
S'37.4.18.4.3.1'
p912
sVmvq
p913
S'60.22.1.7.3.3'
p914
sVmvr
p915
S'37.4.3.5.2.2.2.7.1.4'
p916
sVate
p917
S'60.22.4.3.1.1'
p918
sVmvt
p919
S'37.4.3.5.1.2.1.5.3.4.7'
p920
sVmvv
p921
S'37.4.13.2.3.2.1.5'
p922
sVmvw
p923
S'63.1.3.1.2.2.6.1.11.15.1'
p924
sVmvx
p925
S'37.4.3.5.2.2.2.1.3'
p926
sVato
p927
S'63.1.3.1.2.2.11.3.2'
p928
sVmvz
p929
S'1.6.2.1.2.1.2.3'
p930
sVist
p931
S'46.8.2.2.1.1'
p932
sVatv
p933
S'80.3.1'
p934
sVmva
p935
S'37.4.3.5.1.5.2.4.1.2.3'
p936
sVmvb
p937
S'14.1.3.1.3'
p938
sVjko
p939
S'60.10.4'
p940
sVmvd
p941
S'37.4.3.10.2.6'
p942
sVisn
p943
S'63.1.3.1.2.2.6.1.3.1.1'
p944
sVism
p945
S'37.4.3.5.1.5.2.3.2.6'
p946
sVatq
p947
S'37.4.18.4.4.1'
p948
sVisa
p949
S'60.17.1.4.1'
p950
sVxuo
p951
S'63.1.3.5.1.1.7.4.1.2.1'
p952
sVisg
p953
S'137.59'
p954
sVmvm
p955
S'151.2.4.5.2'
p956
sVmvn
p957
S'37.4.3.5.1.5.3.1.2.2.2.4'
p958
sVaty
p959
S'37.4.3.5.1.2.2.1.1'
p960
sVfmu
p961
S'141.3.1.1.7'
p962
sVkfq
p963
S'33.2.1.2.1'
p964
sVnho
p965
S'37.4.3.5.1.2.1.1.1.2.1.2.2.7'
p966
sVkfz
p967
S'63.1.3.5.2.2.1.2.1'
p968
sVjjr
p969
S'63.1.3.1.2.2.3.2.1'
p970
sVnhu
p971
S'63.1.3.1.2.2.1.8'
p972
sVadu
p973
S'63.1.3.1.5.3.1'
p974
sVkfb
p975
S'141.1.1.1'
p976
sVktz
p977
S'118.1.1'
p978
sVkib
p979
S'63.2.1.2.1.2.1'
p980
sVded
p981
S'60.13.2.1.2'
p982
sVjje
p983
S'110.1'
p984
sVkfj
p985
S'33.1.8.1'
p986
sVdti
p987
S'63.1.3.2.2'
p988
sVkfh
p989
S'141.4.4'
p990
sVtoz
p991
S'63.1.3.5.1.1.7.4.4.4'
p992
sVyiu
p993
S'151.2.3.3.2.2'
p994
sVtox
p995
S'37.4.3.5.1.2.1.3.1.4.2.11'
p996
sVtoy
p997
S'37.4.2.2.1.1.8'
p998
sVkql
p999
S'136.4'
p1000
sVyit
p1001
S'151.2.3.3.1.9'
p1002
sVtor
p1003
S'63.1.3.5.1.2.1.1.1.6.1'
p1004
sVtos
p1005
S'56.2.3'
p1006
sVtop
p1007
S'56.2.5'
p1008
sVtoq
p1009
S'67.3.3.1.2.2.2.3'
p1010
sVmmv
p1011
S'68.1'
p1012
sVtow
p1013
S'106.1'
p1014
sVxin
p1015
S'126.76'
p1016
sVtou
p1017
S'33.1.9.2.2'
p1018
sVtoj
p1019
S'15.2.3.1.2'
p1020
sVtoh
p1021
S'63.1.3.1.2.2.6.1.13.2.1'
p1022
sVtoi
p1023
S'63.1.3.1.2.2.6.1.9.16.2'
p1024
sVton
p1025
S'37.4.3.5.1.2.1.1.1.2.2.2'
p1026
sVtoo
p1027
S'56.2.8'
p1028
sVnjs
p1029
S'149.6'
p1030
sVtob
p1031
S'26.2.4'
p1032
sVtoc
p1033
S'56.2.1'
p1034
sVdik
p1035
S'67.3.3.3.1.1.5'
p1036
sVkid
p1037
S'63.1.3.1.2.2.12.3'
p1038
sVtof
p1039
S'6.2'
p1040
sVtog
p1041
S'63.1.3.1.2.2.6.1.10.8.1'
p1042
sVtoe
p1043
S'142.3.6'
p1044
sVgyg
p1045
S'63.1.3.5.1.2.3.2'
p1046
sVgyd
p1047
S'29.11.2'
p1048
sVnjh
p1049
S'151.2.5.4.2.2'
p1050
sVgyb
p1051
S'60.22.1.2.4'
p1052
sVkno
p1053
S'63.3.2.1.1.1.2.2.1'
p1054
sVnbw
p1055
S'63.1.3.5.1.2.3.5'
p1056
sVgyl
p1057
S'1.5.2.3'
p1058
sVads
p1059
S'137.1'
p1060
sVgyi
p1061
S'63.1.3.1.2.2.6.2.1.39.1'
p1062
sVknm
p1063
S'142.2.3.2.3'
p1064
sVnbu
p1065
S'151.2.5.4.8.5'
p1066
sVmhp
p1067
S'133.11.6'
p1068
sVnbt
p1069
S'151.2.1.8.5'
p1070
sVsrr
p1071
S'63.1.1.2.5.2.1'
p1072
sVknk
p1073
S'63.3.2.1.1.1.2.1.2.2'
p1074
sVnzs
p1075
S'137.88'
p1076
sVtex
p1077
S'67.3.1.4.2.2.1.3.1'
p1078
sVktx
p1079
S'95.1'
p1080
sVkty
p1081
S'63.1.3.1.2.2.6.2.3.29.1'
p1082
sVsod
p1083
S'63.1.3.1.2.2.6.1.1.26.1'
p1084
sVktt
p1085
S'60.28.1.2.1'
p1086
sVnzz
p1087
S'63.1.3.2.11'
p1088
sVktv
p1089
S'33.1.2.2.2.2.1'
p1090
sVktw
p1091
S'14.1.3.1.2'
p1092
sVktp
p1093
S'151.2.3.3.4.9'
p1094
sVktq
p1095
S'37.4.20.2'
p1096
sVkts
p1097
S'60.28.2.1.3'
p1098
sVktm
p1099
S'37.4.3.5.1.1.1.1.1.6'
p1100
sVktn
p1101
S'76.1.2'
p1102
sVkto
p1103
S'126.36'
p1104
sVkth
p1105
S'67.8.1'
p1106
sVkti
p1107
S'60.28.2.1.2'
p1108
sVktj
p1109
S'63.1.3.3.5.2.2.1'
p1110
sVktk
p1111
S'37.4.3.5.1.1.2.1'
p1112
sVnzk
p1113
S'63.1.3.5.1.2.5.2.3'
p1114
sVktf
p1115
S'63.1.3.1.2.2.6.1.1.29.2'
p1116
sVyiz
p1117
S'151.2.3.3.3.5'
p1118
sVkta
p1119
S'33.1.2.1.3.2'
p1120
sVnzm
p1121
S'151.2.5.4.8.7'
p1122
sVktc
p1123
S'1.2.4.1.2.1.1.9'
p1124
sVlbq
p1125
S'37.4.3.5.1.5.2.1.1.1.3.1'
p1126
sVrag
p1127
S'63.1.3.1.2.2.6.1.6.15.1'
p1128
sVrad
p1129
S'37.4.10.1.3.2'
p1130
sVlbr
p1131
S'151.2.7.2.2.1.11'
p1132
sVlbu
p1133
S'37.4.3.5.1.5.2.1.1.1.2.1'
p1134
sVrac
p1135
S'122.3.1'
p1136
sVlbw
p1137
S'37.4.2.1.2.1.2.2.3'
p1138
sVlbv
p1139
S'37.4.3.5.1.5.1.2.2.2'
p1140
sVran
p1141
S'60.21.3'
p1142
sVlbx
p1143
S'37.4.5.2.3.1'
p1144
sVnbl
p1145
S'63.1.3.1.2.2.6.1.13.3.1'
p1146
sVrak
p1147
S'37.4.3.5.1.1.1.1.3.8'
p1148
sVlba
p1149
S'151.2.6.4'
p1150
sVraw
p1151
S'151.2.1.7.3'
p1152
sVpnz
p1153
S'63.1.3.5.1.1.7.4.1.1.4'
p1154
sVlbe
p1155
S'79.1.4.1'
p1156
sVdtm
p1157
S'63.1.3.2.16'
p1158
sVrap
p1159
S'37.4.3.5.1.2.1.1.1.2.1.1.2.1'
p1160
sVteq
p1161
S'67.3.4.4.1'
p1162
sVlbi
p1163
S'63.1.3.5.1.1.5.1'
p1164
sVraz
p1165
S'37.4.2.1.2.1.2.2.2'
p1166
sVbqc
p1167
S'63.3.1.1.2.1'
p1168
sVlbo
p1169
S'33.1.2.1.5.2.1'
p1170
sVlbn
p1171
S'33.1.5.4.1.2.2'
p1172
sVypp
p1173
S'151.2.3.3.3.33'
p1174
sVypz
p1175
S'151.2.3.3.3.35'
p1176
sVnbg
p1177
S'141.3.1.1.9'
p1178
sVteu
p1179
S'67.3.2.2.2'
p1180
sVakc
p1181
S'126.44'
p1182
sVpnq
p1183
S'63.1.3.5.2.2.2.4.2.6'
p1184
sVypa
p1185
S'151.2.3.3.3.24'
p1186
sVypg
p1187
S'151.2.3.3.3.25'
p1188
sVvgt
p1189
S'137.37'
p1190
sVgse
p1191
S'137.41'
p1192
sVyph
p1193
S'151.2.3.3.3.34'
p1194
sVtew
p1195
S'106.3'
p1196
sVnjl
p1197
S'67.3.4.1.2.5'
p1198
sVypo
p1199
S'151.2.3.3.3.26'
p1200
sVypm
p1201
S'151.2.3.3.3.32'
p1202
sVtyn
p1203
S'60.28.1.2.2'
p1204
sVpnr
p1205
S'60.22.1.1.5'
p1206
sVtyh
p1207
S'33.1.5.2.2.1.3'
p1208
sVbsy
p1209
S'37.4.13.4.1.1.1'
p1210
sVaba
p1211
S'63.1.3.4.2.1.1'
p1212
sVbsu
p1213
S'37.4.2.1.2.1.1.1.1'
p1214
sVbsv
p1215
S'63.1.1.3.2.3.1.6'
p1216
sVbsp
p1217
S'63.1.1.3.2.3.1.5'
p1218
sVtya
p1219
S'60.22.3.1.2'
p1220
sVbsr
p1221
S'63.1.3.1.9.2.1.4'
p1222
sVhui
p1223
S'60.12.3.1'
p1224
sVbsl
p1225
S'63.1.3.1.9.2.1.2'
p1226
sVbsm
p1227
S'37.4.3.5.2.2.2.7.1.3'
p1228
sVbso
p1229
S'1.2.2.1.1.1'
p1230
sVtyx
p1231
S'63.1.3.1.2.2.6.2.2.32.3'
p1232
sVbsi
p1233
S'63.1.3.1.2.2.6.2.1.37.1'
p1234
sVbsj
p1235
S'63.1.3.5.1.1.9.3.4.1'
p1236
sVbsk
p1237
S'126.10'
p1238
sVtyu
p1239
S'102.1.1.2.1'
p1240
sVbsf
p1241
S'63.1.3.1.9.2.2.1'
p1242
sVbsa
p1243
S'126.1'
p1244
sVeky
p1245
S'151.2.2.1.4'
p1246
sVbsc
p1247
S'63.1.1.2.3.3.4'
p1248
sVdok
p1249
S'37.4.2.3.2.1.1'
p1250
sVdoh
p1251
S'63.1.3.1.2.1.1.2'
p1252
sVdon
p1253
S'37.4.3.5.1.5.3.2.1.3.2.4'
p1254
sVdoo
p1255
S'63.1.3.5.1.2.4.1.1.1'
p1256
sVdol
p1257
S'8811'
p1258
sVtbi
p1259
S'67.3.1.1.2.1'
p1260
sVdob
p1261
S'37.4.3.5.1.5.3.1.2.4.3'
p1262
sVgsm
p1263
S'137.44'
p1264
sVaph
p1265
S'151.2.7.2.2.1.1'
p1266
sVdoa
p1267
S'60.5.1.2'
p1268
sVdof
p1269
S'60.32.5.3'
p1270
sVcya
p1271
S'83.1.2.2.1.2'
p1272
sVjbj
p1273
S'60.31.3.2.1'
p1274
sVlpo
p1275
S'151.2.3.3.1.15'
p1276
sVnef
p1277
S'107.2.1'
p1278
sVdoy
p1279
S'63.1.3.4.2.5.6.2.1.2'
p1280
sVabi
p1281
S'63.1.3.4.2.1.2'
p1282
sVdor
p1283
S'37.4.3.5.1.2.3.2.1.3.1'
p1284
sVpnm
p1285
S'37.4.13.1.1.4'
p1286
sVdop
p1287
S'63.1.3.5.2.2.2.4.1.6'
p1288
sVgsn
p1289
S'60.13.1.1.2'
p1290
sVdov
p1291
S'63.1.3.1.2.2.6.1.9.16.1'
p1292
sVdow
p1293
S'63.1.3.5.1.1.6.1.3.2.1.1'
p1294
sVlpa
p1295
S'37.4.3.5.1.2.1.5.3.1.4'
p1296
sVmbc
p1297
S'73.3.1.1.1'
p1298
sVpks
p1299
S'137.92'
p1300
sVpkp
p1301
S'37.4.3.5.1.2.1.1.1.2.1.2.4.1'
p1302
sVabk
p1303
S'79.2.1.2'
p1304
sVpue
p1305
S'126.53'
p1306
sVpkt
p1307
S'33.1.9.1.3'
p1308
sVpku
p1309
S'37.4.5.2.1.2.4'
p1310
sVsuk
p1311
S'63.1.3.1.2.2.6.1.3.5.1'
p1312
sVnng
p1313
S'151.2.5.4.6.2'
p1314
sVpnn
p1315
S'103.2'
p1316
sVdta
p1317
S'43.1.1.1'
p1318
sVpkb
p1319
S'63.1.3.1.2.2.6.1.2.15.1'
p1320
sVpkg
p1321
S'37.4.3.5.1.1.1.2.1'
p1322
sVmbo
p1323
S'63.1.3.1.2.2.6.2.1.35.1'
p1324
sVkup
p1325
S'60.32.2.2.2'
p1326
sVpko
p1327
S'67.3.3.2.1.4.1'
p1328
sVoci
p1329
S'46.8.2.2.2.1.2.2.1'
p1330
sVztl
p1331
S'83.1.2.2.2.17'
p1332
sVudi
p1333
S'79.1.5.3.1'
p1334
sVhrx
p1335
S'46.5.1'
p1336
sVabq
p1337
S'79.2.1.1'
p1338
sVzte
p1339
S'83.1.2.2.2.11'
p1340
sVztg
p1341
S'83.1.2.2.2.49'
p1342
sVhrv
p1343
S'46.3.2.2.2.2'
p1344
sVabr
p1345
S'63.1.3.4.2.5.6.1.1.1'
p1346
sVzak
p1347
S'63.1.3.1.2.2.6.1.6.20.1'
p1348
sVhrm
p1349
S'38.1.2.10'
p1350
sVgqi
p1351
S'151.2.4.5.1'
p1352
sVhro
p1353
S'37.4.10.1.2.1'
p1354
sVbxb
p1355
S'67.3.3.3.2.1.2.1'
p1356
sVzty
p1357
S'83.1.2.2.2.52'
p1358
sVcym
p1359
S'46.4.1.1.3'
p1360
sVsjl
p1361
S'151.2.1.2.2'
p1362
sVmwy
p1363
S'67.3.3.2.1.2.3.4'
p1364
sVztt
p1365
S'83.1.2.2.2.43'
p1366
sVudm
p1367
S'92.4.1'
p1368
sVztq
p1369
S'83.1.2.2.2.27'
p1370
sVztp
p1371
S'83.1.2.2.2.18'
p1372
sVzts
p1373
S'83.1.2.2.2.45'
p1374
sVxoc
p1375
S'63.1.3.1.3.2.1.6'
p1376
sVybx
p1377
S'147.3.4'
p1378
sVsms
p1379
S'92.5.1.4'
p1380
sVsuq
p1381
S'67.3.1.4.2.1.2.2.2'
p1382
sVyee
p1383
S'127.2.3.2'
p1384
sVaor
p1385
S'37.4.3.5.1.2.1.5.3.5.3'
p1386
sVabw
p1387
S'60.22.1.7.5.2'
p1388
sVbeh
p1389
S'63.1.3.5.2.2.1.3.2.1'
p1390
sVxoo
p1391
S'126.77'
p1392
sVadl
p1393
S'151.2.1.8.2'
p1394
sVnet
p1395
S'60.12.2.6'
p1396
sVxtp
p1397
S'83.1.1.2.2.31'
p1398
sVsmr
p1399
S'37.4.14.3'
p1400
sVemg
p1401
S'151.2.7.2.2.1.13'
p1402
sVbau
p1403
S'63.1.3.1.2.2.3.2.11'
p1404
sVbas
p1405
S'63.1.3.1.2.2.6.2.1.8.2'
p1406
sVbap
p1407
S'151.2.7.2.2.1.2'
p1408
sVner
p1409
S'60.31.2.2'
p1410
sVemn
p1411
S'63.1.3.1.2.2.9.7'
p1412
sVemi
p1413
S'37.4.3.5.1.3.1'
p1414
sVbay
p1415
S'37.4.3.1.2'
p1416
sVbaf
p1417
S'63.1.3.1.2.2.6.2.1.53.1'
p1418
sVbag
p1419
S'63.1.3.1.2.2.6.2.1.51.2'
p1420
sVemw
p1421
S'37.4.3.2.2.2.1'
p1422
sVbab
p1423
S'63.1.1.2.3.1.2'
p1424
sVbac
p1425
S'37.4.19.1'
p1426
sVczh
p1427
S'151.1.3'
p1428
sVban
p1429
S'37.4.1.1'
p1430
sVady
p1431
S'79.2.2.1'
p1432
sVbaj
p1433
S'37.4.3.1.1'
p1434
sVemx
p1435
S'35.3.1'
p1436
sVsbf
p1437
S'8845'
p1438
sVggu
p1439
S'63.3.1.2.2.1.2'
p1440
sVafz
p1441
S'122.4.3.6'
p1442
sVstj
p1443
S'63.3.1.1.4.1'
p1444
sVnux
p1445
S'147.8.3'
p1446
sVnuy
p1447
S'29.6.3.3'
p1448
sVnuv
p1449
S'63.1.3.5.2.2.2.4.2.4'
p1450
sVnuw
p1451
S'35.19.1'
p1452
sVnuu
p1453
S'63.1.3.5.1.2.1.4.1'
p1454
sVnur
p1455
S'37.4.3.5.1.2.1.1.1.2.1.2.2.4'
p1456
sVnus
p1457
S'67.3.3.3.1.2.1'
p1458
sVnuq
p1459
S'37.4.3.5.1.2.1.1.1.2.1.2.2.2'
p1460
sVnun
p1461
S'151.2.1.7.1'
p1462
sVnuo
p1463
S'33.1.9.3.3'
p1464
sVnum
p1465
S'37.4.3.5.1.2.1.1.1.2.1.2.1.1'
p1466
sVnuj
p1467
S'63.1.3.1.2.2.6.1.6.28.1'
p1468
sVnuk
p1469
S'100.2.3'
p1470
sVnuh
p1471
S'63.1.3.1.2.1.3.1.2.3'
p1472
sVnui
p1473
S'63.1.3.1.2.2.6.2.1.16.1'
p1474
sVnuf
p1475
S'151.2.3.3.1.21'
p1476
sVnug
p1477
S'29.3.2'
p1478
sVnud
p1479
S'147.4.10'
p1480
sVnue
p1481
S'63.1.3.5.1.2.1.1.1.5.5'
p1482
sVsmp
p1483
S'1.6.1.2.2.3'
p1484
sVirx
p1485
S'60.2.4.2'
p1486
sVmut
p1487
S'141.3.1.1.8'
p1488
sVdtd
p1489
S'100.2.1'
p1490
sVmuq
p1491
S'38.1.5.1'
p1492
sVmus
p1493
S'55.1.2.1'
p1494
sVmur
p1495
S'67.3.1.4.2.2.1.2.1'
p1496
sVirr
p1497
S'33.1.2.2.1.1.1'
p1498
sVmuy
p1499
S'1.2.1.1.5.15'
p1500
sVmux
p1501
S'60.5.2.1.1'
p1502
sVmuz
p1503
S'67.3.1.4.2.1.2.2.1'
p1504
sVmue
p1505
S'35.17.1'
p1506
sVmud
p1507
S'35.14.1'
p1508
sVmug
p1509
S'1.2.1.2.2.2'
p1510
sVirk
p1511
S'1.3.4.6'
p1512
sVmua
p1513
S'63.1.3.5.1.1.7.4.2.2.2'
p1514
sVmuc
p1515
S'63.1.3.1.2.2.12.1'
p1516
sVmub
p1517
S'1.2.2.2.1.2.4'
p1518
sVmum
p1519
S'37.4.3.5.1.5.3.1.2.2.2.3'
p1520
sVmuo
p1521
S'63.1.3.5.1.1.6.2.2'
p1522
sVprl
p1523
S'137.97'
p1524
sVire
p1525
S'37.4.3.5.2.2.2.2.1'
p1526
sVmuj
p1527
S'1.2.2.2.1.1.4'
p1528
sVomb
p1529
S'37.4.3.5.1.2.1.5.3.2.1'
p1530
sVome
p1531
S'142.3.4'
p1532
sVwtw
p1533
S'37.4.2.4.1'
p1534
sVomi
p1535
S'67.2.1.4.1.6'
p1536
sVcah
p1537
S'152.1.1'
p1538
sVomo
p1539
S'60.22.4.1.2.1'
p1540
sVoml
p1541
S'63.1.3.1.2.2.6.2.3.62.1'
p1542
sVzbw
p1543
S'37.4.13.2.1.1.1'
p1544
sVinh
p1545
S'79.1.6.2.2'
p1546
sVmbz
p1547
S'83.1.1.2.2.3'
p1548
sVbnx
p1549
S'63.1.3.1.2.2.6.1.1.31.1'
p1550
sVwtf
p1551
S'60.22.3.2.5'
p1552
sVbes
p1553
S'63.1.3.5.1.1.7.3.1'
p1554
sVwti
p1555
S'67.1.1'
p1556
sVxsm
p1557
S'63.1.3.5.2.2.2.4.2.2'
p1558
sVham
p1559
S'147.7.4.2'
p1560
sVcop
p1561
S'1.4.1'
p1562
sVcos
p1563
S'46.8.2.3.1.1'
p1564
sVcor
p1565
S'46.4.1.1.2'
p1566
sVcou
p1567
S'63.1.1.2.3.3.5'
p1568
sVunu
p1569
S'37.4.3.5.1.5.3.1.3.6'
p1570
sVakv
p1571
S'79.1.1.1.1'
p1572
sVila
p1573
S'37.4.3.3.5'
p1574
sVcoy
p1575
S'73.7.1'
p1576
sVunz
p1577
S'37.4.2.2.1.1.4'
p1578
sVcoz
p1579
S'83.1.2.1.1'
p1580
sVhas
p1581
S'100.1.1'
p1582
sVili
p1583
S'80.2.3'
p1584
sVfng
p1585
S'107.12.1'
p1586
sVuna
p1587
S'37.4.3.5.1.5.2.1.1.3.2'
p1588
sVilu
p1589
S'37.4.3.12.2.5.2'
p1590
sVcoe
p1591
S'68.3.1'
p1592
sVils
p1593
S'137.57'
p1594
sVcog
p1595
S'33.1.2.4.2.1.1'
p1596
sVung
p1597
S'29.15.4'
p1598
sVcoh
p1599
S'63.1.3.1.2.2.6.1.2.16.1'
p1600
sVcoj
p1601
S'121.1.1'
p1602
sVpnk
p1603
S'142.2.3.1.2'
p1604
sVunn
p1605
S'29.10.3'
p1606
sVcon
p1607
S'126.20'
p1608
sVkwa
p1609
S'115.1'
p1610
sVsak
p1611
S'63.1.3.1.2.2.6.2.2.11.1'
p1612
sVkwc
p1613
S'63.1.3.1.2.2.6.2.3.23.1'
p1614
sVkwb
p1615
S'63.1.3.5.1.1.4.1'
p1616
sVkwe
p1617
S'48.1.2.1.3'
p1618
sVkwd
p1619
S'37.4.3.5.1.2.3.2.1.2.5'
p1620
sVkwf
p1621
S'37.4.3.5.1.2.3.2.1.2.6'
p1622
sVkwi
p1623
S'45.1.1'
p1624
sVkwh
p1625
S'37.4.3.8.1'
p1626
sVkwj
p1627
S'147.5.1'
p1628
sVkwm
p1629
S'63.1.3.1.2.2.6.1.12.10.1'
p1630
sVkwl
p1631
S'1.2.4.1.3.1.1.3'
p1632
sVkwo
p1633
S'114.2.1'
p1634
sVkwn
p1635
S'63.1.3.1.2.2.6.1.7.12.1'
p1636
sVlpn
p1637
S'151.2.5.4.7.4'
p1638
sVkwp
p1639
S'63.1.3.3.2.4.1'
p1640
sVkws
p1641
S'63.1.3.1.2.2.6.1.8.13.1'
p1642
sVkwr
p1643
S'60.28.2.5.3'
p1644
sVkwu
p1645
S'63.1.3.1.2.2.6.2.1.29.1'
p1646
sVkwt
p1647
S'48.2.3.9'
p1648
sVyim
p1649
S'151.2.5.4.2.4'
p1650
sVkwy
p1651
S'63.1.3.1.2.2.6.1.5.6.1'
p1652
sVkwx
p1653
S'141.3.1.1.3'
p1654
sVhag
p1655
S'63.1.3.5.2.2.1.3.4.3.2'
p1656
sVgxx
p1657
S'63.1.3.3.5.4.1.5'
p1658
sVana
p1659
S'87.1'
p1660
sVfrc
p1661
S'46.8.2.2.2.1.1.2.1.1.2'
p1662
sVbnk
p1663
S'37.4.3.5.1.2.1.5.3.3.2.1.2'
p1664
sVfra
p1665
S'46.8.2.2.2.1.1.2.1.1.1'
p1666
sVnjx
p1667
S'63.1.3.1.2.2.6.1.5.4.1'
p1668
sVfrd
p1669
S'37.4.3.9.1.1.1'
p1670
sVprb
p1671
S'33.1.5.2.2.2.1'
p1672
sVztm
p1673
S'83.1.2.2.2.29'
p1674
sVanl
p1675
S'151.2.3.2.1'
p1676
sVfrq
p1677
S'60.13.1.5.4'
p1678
sVfrp
p1679
S'46.8.2.2.2.1.1.2.1.2.1'
p1680
sVpzn
p1681
S'151.2.5.4.7.6'
p1682
sVfrt
p1683
S'37.4.3.5.1.2.1.5.3.5.5'
p1684
sVmbf
p1685
S'133.11.5'
p1686
sVywa
p1687
S'147.8.2'
p1688
sVann
p1689
S'63.1.3.1.3.2.2.1.3'
p1690
sVcub
p1691
S'68.1.1'
p1692
sVmcn
p1693
S'1.2.3.3'
p1694
sVmcm
p1695
S'133.13.9'
p1696
sVmck
p1697
S'63.1.3.1.2.2.6.1.7.5.1'
p1698
sVmcj
p1699
S'63.1.3.1.2.1.3.1.2.2'
p1700
sVmci
p1701
S'60.13.2.3.4'
p1702
sVvkj
p1703
S'8826'
p1704
sVmcf
p1705
S'95.3.2'
p1706
sVmce
p1707
S'83.1.1.2.2.15'
p1708
sVmcc
p1709
S'60.35.3'
p1710
sVmca
p1711
S'7.1'
p1712
sVani
p1713
S'79.1.1.1.2'
p1714
sVsmj
p1715
S'92.5.3.1.1'
p1716
sVsae
p1717
S'59.1'
p1718
sVmcy
p1719
S'37.4.3.5.1.5.2.1.1.3.3'
p1720
sVhaq
p1721
S'63.1.3.1.2.2.6.1.6.46.1'
p1722
sVxxk
p1723
S'37.4.3.3.8'
p1724
sVmcv
p1725
S'60.16.2.5'
p1726
sVmcu
p1727
S'63.1.3.1.2.1.3.1.3.1'
p1728
sVmct
p1729
S'63.1.3.1.2.2.6.2.1.24.2'
p1730
sVmcs
p1731
S'63.1.3.5.1.1.7.4.2.2.1'
p1732
sVhar
p1733
S'1.6.2.1.2.2.2.1'
p1734
sVmcq
p1735
S'60.32.3.1.2'
p1736
sVmcp
p1737
S'63.1.3.1.2.2.6.2.1.43.1'
p1738
sVkhy
p1739
S'63.1.3.1.2.2.6.2.3.55.1'
p1740
sVdaq
p1741
S'141.3.1.1.5'
p1742
sVgnq
p1743
S'37.4.13.4.1.2.1'
p1744
sVslx
p1745
S'63.1.3.1.2.2.6.1.8.7.1'
p1746
sVaix
p1747
S'37.4.3.5.1.5.2.2.2.8.2.2.1'
p1748
sVslz
p1749
S'37.4.3.5.2.2.2.4.8'
p1750
sVgnu
p1751
S'52.6.3.4'
p1752
sVgnz
p1753
S'63.1.3.5.1.2.4.1.2.2.1.2'
p1754
sVslu
p1755
S'37.4.3.9.2.1'
p1756
sVaiw
p1757
S'1.5.2.1'
p1758
sVslw
p1759
S'60.13.2.3.9'
p1760
sVslp
p1761
S'37.4.3.3.10'
p1762
sVaip
p1763
S'60.28.2.5.1'
p1764
sVais
p1765
S'37.3.1.2'
p1766
sVair
p1767
S'48.1.2.2.1'
p1768
sVsll
p1769
S'60.5.1.6'
p1770
sVail
p1771
S'60.4.1'
p1772
sVsln
p1773
S'126.56'
p1774
sVgna
p1775
S'63.1.3.5.2.2.2.3.2'
p1776
sVrgn
p1777
S'46.8.2.2.2.1.1.1.5'
p1778
sVgnd
p1779
S'1.2.1.1.5.18'
p1780
sVslk
p1781
S'46.3.2.3.1.2'
p1782
sVaie
p1783
S'37.4.3.5.1.5.2.2.2.8.1.1'
p1784
sVgnk
p1785
S'102.1.1.4.3'
p1786
sVslf
p1787
S'137.121'
p1788
sVgni
p1789
S'29.1.2'
p1790
sVaia
p1791
S'37.4.3.5.1.2.3.2.2.1'
p1792
sVbqs
p1793
S'127.3.4.2.2'
p1794
sVaic
p1795
S'53.1.1'
p1796
sVgnm
p1797
S'60.32.1.3'
p1798
sVtzx
p1799
S'127.2.3.1'
p1800
sVglc
p1801
S'63.1.3.5.1.1.7.1.2'
p1802
sVakw
p1803
S'63.1.3.1.2.2.6.2.3.20.1'
p1804
sVprr
p1805
S'119.2'
p1806
sVsmh
p1807
S'151.2.3.3.2.12'
p1808
sVgle
p1809
S'46.4.1.2.2'
p1810
sVtza
p1811
S'137.123'
p1812
sVscf
p1813
S'133.6.9'
p1814
sVtzh
p1815
S'15.2.1.1.2.1.1'
p1816
sVsju
p1817
S'92.5.2.1'
p1818
sVtzo
p1819
S'15.2.1.1.2.2.1'
p1820
sVtzn
p1821
S'37.4.3.12.2.5.4'
p1822
sVdhm
p1823
S'63.1.3.1.2.2.6.1.12.2.1'
p1824
sVsqk
p1825
S'137.4'
p1826
sVpin
p1827
S'147.7.4.4'
p1828
sVgly
p1829
S'67.6.2.1'
p1830
sVpry
p1831
S'33.1.5.2.2.2.4'
p1832
sVlmi
p1833
S'67.2.1.2.2'
p1834
sVany
p1835
S'63.1.3.4.2.5.6.1.2.1.2'
p1836
sVdhv
p1837
S'37.4.3.5.1.2.1.2.1'
p1838
sVdhs
p1839
S'63.1.3.1.2.2.6.1.2.13.1'
p1840
sVnij
p1841
S'37.4.5.4.2.2'
p1842
sVnik
p1843
S'33.1.4.3.1'
p1844
sVnih
p1845
S'63.1.3.1.2.2.6.1.9.22.2'
p1846
sVnii
p1847
S'60.5.4.1'
p1848
sVgwx
p1849
S'63.1.3.4.2.5.6.2.2.3'
p1850
sVnil
p1851
S'37.4.3.12.2.4.1.1'
p1852
sVnim
p1853
S'63.1.3.1.2.2.6.1.3.1.2'
p1854
sVkis
p1855
S'37.4.3.5.1.5.2.4.1.2.2'
p1856
sVjku
p1857
S'63.1.3.1.2.2.3.2.8'
p1858
sVkiq
p1859
S'90.2.2'
p1860
sVukh
p1861
S'63.1.3.1.2.2.6.2.1.40.1'
p1862
sVnif
p1863
S'60.13.1.1.7'
p1864
sVnig
p1865
S'29.6.10.1'
p1866
sVnid
p1867
S'29.6.3.2'
p1868
sVkit
p1869
S'20.2.1'
p1870
sVniz
p1871
S'52.6.3.5'
p1872
sVkij
p1873
S'37.4.3.5.1.5.3.2.2.1.2'
p1874
sVnix
p1875
S'63.1.3.1.2.2.6.1.6.34.1'
p1876
sVkih
p1877
S'53.1.2'
p1878
sVkio
p1879
S'106.2'
p1880
sVkin
p1881
S'63.1.3.1.2.2.6.1.6.40.1'
p1882
sVkim
p1883
S'80.3.4'
p1884
sVkil
p1885
S'1.2.4.2.2.4'
p1886
sVnir
p1887
S'71.5'
p1888
sVnis
p1889
S'60.13.1.1.8'
p1890
sVkia
p1891
S'63.1.3.5.1.1.7.3.3'
p1892
sVniq
p1893
S'67.3.3.2.1.2.3.5'
p1894
sVkig
p1895
S'60.21.1'
p1896
sVniw
p1897
S'21.5'
p1898
sVnit
p1899
S'141.1.1.2'
p1900
sVniu
p1901
S'37.4.3.5.1.2.1.1.1.2.2.1'
p1902
sValr
p1903
S'113.1.2.1'
p1904
sVsja
p1905
S'101.1.2.4'
p1906
sVthz
p1907
S'1.1.3.2.2'
p1908
sVthy
p1909
S'63.1.3.5.1.1.9.1.10'
p1910
sVsme
p1911
S'92.5.3.1.2'
p1912
sVthv
p1913
S'1.1.3.1.1'
p1914
sVthu
p1915
S'67.3.3.3.2.1.6.1'
p1916
sVcnc
p1917
S'151.2.3.3.4.5'
p1918
sVsjg
p1919
S'67.3.4.3.2.1'
p1920
sVepo
p1921
S'125.1'
p1922
sVthm
p1923
S'33.1.9.4.1'
p1924
sVthk
p1925
S'63.1.3.1.2.2.6.1.2.10.1'
p1926
sVglv
p1927
S'46.4.1.2.3'
p1928
sVepi
p1929
S'63.1.3.1.5.1.3'
p1930
sVthf
p1931
S'151.2.7.2.1.5.2'
p1932
sVakd
p1933
S'63.1.3.1.3.2.4.2.1'
p1934
sVkkf
p1935
S'151.2.7.1.3'
p1936
sVdev
p1937
S'60.13.1.6.2'
p1938
sVadj
p1939
S'63.1.3.4.2.1.3'
p1940
sVyei
p1941
S'8860'
p1942
sVyej
p1943
S'46.6.1.5'
p1944
sVyel
p1945
S'63.1.3.1.2.2.6.2.3.60.1'
p1946
sVyec
p1947
S'35.9.1'
p1948
sVmmu
p1949
S'63.1.3.1.2.2.6.2.1.52.2'
p1950
sVyey
p1951
S'63.1.3.1.2.2.6.1.12.12.1'
p1952
sVait
p1953
S'76.1.1'
p1954
sVtin
p1955
S'79.1.1.1.8'
p1956
sVxrb
p1957
S'63.1.3.5.2.5.1.1'
p1958
sVyet
p1959
S'8861'
p1960
sVyev
p1961
S'52.6.3.9'
p1962
sVelk
p1963
S'52.6.3.3'
p1964
sVbny
p1965
S'37.4.13.2.2.1'
p1966
sVopo
p1967
S'60.11.1.2.2'
p1968
sVvid
p1969
S'63.1.3.1.2.2.6.1.4.30.1'
p1970
sVell
p1971
S'46.6.1.2'
p1972
sVelm
p1973
S'63.1.3.1.3.2.3.2.2'
p1974
sVbnr
p1975
S'37.4.3.5.1.2.1.5.1.2.1'
p1976
sVhab
p1977
S'137.47'
p1978
sVbnp
p1979
S'37.4.3.5.1.5.1.3.1'
p1980
sVhad
p1981
S'126.26'
p1982
sVbnv
p1983
S'48.2.3.1'
p1984
sVbnu
p1985
S'37.4.18.3.1'
p1986
sVele
p1987
S'52.3.3'
p1988
sVhax
p1989
S'30.2'
p1990
sVhay
p1991
S'63.1.3.1.2.2.6.1.6.2.1'
p1992
sVbni
p1993
S'63.1.3.1.2.2.6.2.3.6.1'
p1994
sVbnn
p1995
S'37.2.1'
p1996
sVbnm
p1997
S'63.1.3.1.2.2.6.2.1.15.1'
p1998
sVbnl
p1999
S'1.3.2.1'
p2000
sVhap
p2001
S'60.37.1.1.5'
p2002
sVbnb
p2003
S'37.4.13.2.3.2.2.1'
p2004
sVbna
p2005
S'37.4.2.1.2.2.2.1'
p2006
sVadh
p2007
S'67.3.3.3.2.2.1.1'
p2008
sVbng
p2009
S'63.1.3.1.2.2.6.2.1.17.1'
p2010
sVhau
p2011
S'1.2.4.1.1.2'
p2012
sVhav
p2013
S'63.1.3.1.2.2.6.1.6.50.1'
p2014
sVelu
p2015
S'37.4.3.5.1.1.1.1.1.2'
p2016
sVrnn
p2017
S'37.4.3.5.2.2.2.7.1.8'
p2018
sVlcp
p2019
S'33.1.5.4.1.3.2.2'
p2020
sVrnl
p2021
S'151.2.6.8'
p2022
sVccd
p2023
S'133.13.2'
p2024
sVrna
p2025
S'101.1'
p2026
sVmpw
p2027
S'142.1.2.2.2'
p2028
sVrng
p2029
S'63.1.3.1.2.2.6.1.13.19.1'
p2030
sVxba
p2031
S'8818'
p2032
sVrnd
p2033
S'63.1.3.1.2.2.6.1.8.9.1'
p2034
sVxru
p2035
S'29.2.3.1'
p2036
sVlcd
p2037
S'37.4.3.1.8'
p2038
sVywt
p2039
S'151.2.3.3.1.7'
p2040
sVmmj
p2041
S'8831'
p2042
sVlcc
p2043
S'37.4.3.5.2.2.2.4.5'
p2044
sVopm
p2045
S'60.29.1'
p2046
sVlcl
p2047
S'37.4.3.4.2.2'
p2048
sVlcm
p2049
S'37.4.3.5.1.5.1.2.1.6'
p2050
sVrnw
p2051
S'63.1.3.1.2.2.6.1.9.6.1'
p2052
sVlch
p2053
S'63.1.3.1.2.2.6.1.7.3.1'
p2054
sVopk
p2055
S'60.28.2.5.2'
p2056
sVbpa
p2057
S'37.4.3.5.1.2.1.5.3.2.7'
p2058
sVywu
p2059
S'151.2.3.3.2.8'
p2060
sVbpb
p2061
S'45.1.2'
p2062
sVywr
p2063
S'29.9.9'
p2064
sVbpg
p2065
S'37.4.3.5.1.5.2.3.2.2'
p2066
sVvis
p2067
S'141.5.5'
p2068
sVbpi
p2069
S'60.22.1.2.1'
p2070
sVgke
p2071
S'63.1.3.5.1.1.7.4.2.1.3'
p2072
sVbpk
p2073
S'37.4.3.5.1.2.1.4.3.2.1.5'
p2074
sVbpj
p2075
S'63.1.3.1.2.2.6.1.8.17.1'
p2076
sVbpm
p2077
S'60.22.3.1.1'
p2078
sVbpl
p2079
S'107.7.1'
p2080
sVqxl
p2081
S'123.2.1.1.13'
p2082
sVbpn
p2083
S'38.3.3.1'
p2084
sVqxr
p2085
S'123.2.1.1.8'
p2086
sVbpp
p2087
S'90.2.1'
p2088
sVjye
p2089
S'1.6.1.2.1.16'
p2090
sVbpu
p2091
S'60.22.3.4.2'
p2092
sVbpw
p2093
S'21.2'
p2094
sVbpv
p2095
S'60.23.2.2'
p2096
sVywl
p2097
S'151.2.3.3.1.10'
p2098
sVjvd
p2099
S'133.4.2'
p2100
sVwww
p2101
S'63.1.3.1.2.1.3.3.2.2'
p2102
sVold
p2103
S'63.1.3.1.2.2.6.1.2.2.1'
p2104
sVbri
p2105
S'63.1.3.1.2.2.6.2.1.19.1'
p2106
sVwwr
p2107
S'29.9.8'
p2108
sVmjc
p2109
S'83.1.1.2.2.28'
p2110
sVbrh
p2111
S'141.2.1'
p2112
sVgng
p2113
S'63.1.3.5.2.2.1.3.3.5'
p2114
sVabs
p2115
S'133.11.4'
p2116
sVolo
p2117
S'92.1.8'
p2118
sVolr
p2119
S'37.4.3.5.1.2.1.5.3.2.24'
p2120
sVfcs
p2121
S'137.104'
p2122
sVwwa
p2123
S'63.1.3.5.2.2.1.3.2.4'
p2124
sVbpo
p2125
S'149.1'
p2126
sVlsg
p2127
S'137.75'
p2128
sVwwo
p2129
S'37.4.3.5.1.2.1.5.3.2.8'
p2130
sVtxu
p2131
S'62.2.2'
p2132
sVbpq
p2133
S'133.11.7'
p2134
sVyka
p2135
S'37.4.5.3.1'
p2136
sVcnu
p2137
S'1.1.2.1'
p2138
sVaqt
p2139
S'3.1'
p2140
sVcns
p2141
S'60.2.1.2'
p2142
sVums
p2143
S'37.4.2.3.2.2.3'
p2144
sVumr
p2145
S'29.13.2'
p2146
sVykk
p2147
S'37.4.3.5.1.5.3.1.2.2.2.9'
p2148
sVbqy
p2149
S'137.14'
p2150
sVica
p2151
S'63.1.3.1.4.3.1.2'
p2152
sVyko
p2153
S'63.1.3.1.2.2.6.2.1.16.2'
p2154
sVykn
p2155
S'151.2.3.3.3.9'
p2156
sVykm
p2157
S'37.4.3.5.1.5.2.4.2.2'
p2158
sVrki
p2159
S'151.2.3.1.2.5'
p2160
sVfod
p2161
S'63.1.3.4.2.5.6.2.1.4'
p2162
sVykr
p2163
S'60.15.1.3.1'
p2164
sVqxq
p2165
S'80.4.2'
p2166
sVuma
p2167
S'131.1.2'
p2168
sVaoh
p2169
S'87.1.2'
p2170
sVyku
p2171
S'151.2.3.3.3.10'
p2172
sVumb
p2173
S'63.1.3.1.2.2.6.1.12.3.1'
p2174
sVumm
p2175
S'63.1.3.1.3.2.4.3.2.2.1.3'
p2176
sVcno
p2177
S'33.1.5.4.1.2.1'
p2178
sVumo
p2179
S'57.3'
p2180
sVumn
p2181
S'151.2.5.1.2.7'
p2182
sVumi
p2183
S'37.4.13.1.1.7'
p2184
sVfoi
p2185
S'60.9.2'
p2186
sVcni
p2187
S'142.2.1.1'
p2188
sVhsb
p2189
S'46.3.2.3.3.2'
p2190
sVplu
p2191
S'142.1.1.1.1'
p2192
sVplt
p2193
S'37.4.5.2.2.6'
p2194
sVplr
p2195
S'63.1.3.5.2.5.2.1'
p2196
sVdnd
p2197
S'53.3.3'
p2198
sVkhu
p2199
S'63.1.3.1.2.2.6.1.12.6.1'
p2200
sVhsh
p2201
S'137.53'
p2202
sVjya
p2203
S'151.2.4.6.2'
p2204
sVhsn
p2205
S'151.1.12'
p2206
sVplz
p2207
S'37.4.13.2.3.2.1.3'
p2208
sVply
p2209
S'33.1.6.1'
p2210
sVawr
p2211
S'122.1.1'
p2212
sVplg
p2213
S'26.2.3'
p2214
sVhss
p2215
S'1.6.2.2.2'
p2216
sVple
p2217
S'37.4.3.3.23'
p2218
sVpld
p2219
S'8841'
p2220
sVplb
p2221
S'37.4.3.5.1.2.1.5.1.2.3'
p2222
sVpla
p2223
S'60.22.1.7.2.4'
p2224
sVplo
p2225
S'31.1.1'
p2226
sVpln
p2227
S'133.14.2'
p2228
sVpll
p2229
S'33.1.5.4.2.2.3'
p2230
sVmmr
p2231
S'38.1.5.2'
p2232
sVemp
p2233
S'101.1.1.1'
p2234
sVobl
p2235
S'63.1.3.5.1.1.8.1'
p2236
sVarr
p2237
S'76.5.1'
p2238
sVwhu
p2239
S'37.4.13.2.4.1.1.8'
p2240
sVzuy
p2241
S'1.2.3.8'
p2242
sVmni
p2243
S'151.2.5.4.5.1'
p2244
sVsng
p2245
S'63.1.3.1.2.2.6.1.8.6.1'
p2246
sVzuh
p2247
S'60.17.1.2.4'
p2248
sVobu
p2249
S'63.1.3.1.3.2.1.2'
p2250
sVzun
p2251
S'126.83'
p2252
sVzul
p2253
S'63.1.3.1.2.2.6.1.13.5.1'
p2254
sVahb
p2255
S'37.4.3.5.1.2.1.5.3.4.2'
p2256
sVmbm
p2257
S'63.1.3.1.2.2.6.2.2.15.1'
p2258
sVmbn
p2259
S'22.1.2'
p2260
sVsob
p2261
S'37.4.3.5.1.5.2.3.2.8'
p2262
sVmbh
p2263
S'37.4.3.5.1.5.2.2.2.8.2.1.1'
p2264
sVahg
p2265
S'1.3.1.4.1'
p2266
sVmbj
p2267
S'115.3.1'
p2268
sVmbk
p2269
S'37.4.3.5.1.5.2.4.2.3'
p2270
sVppk
p2271
S'37.4.2.2.2.3'
p2272
sVsoh
p2273
S'67.3.1.1.1.1'
p2274
sVsok
p2275
S'1.2.2.2.3.3'
p2276
sVahi
p2277
S'63.1.3.3.1.3'
p2278
sVppo
p2279
S'60.34.2'
p2280
sVnjz
p2281
S'151.2.1.8.6'
p2282
sVppm
p2283
S'37.4.3.5.2.2.2.7.1.6'
p2284
sVahm
p2285
S'63.1.3.3.1.2'
p2286
sVsoq
p2287
S'60.32.1.4'
p2288
sVsop
p2289
S'63.1.3.1.2.2.6.1.8.16.1'
p2290
sVahp
p2291
S'63.1.3.3.1.1'
p2292
sVijs
p2293
S'63.1.2.2.1.1'
p2294
sVmbx
p2295
S'147.7.2.5'
p2296
sVsot
p2297
S'63.1.3.1.2.2.6.1.13.16.1'
p2298
sVaht
p2299
S'14.1.2.1'
p2300
sVsov
p2301
S'37.4.3.5.1.2.1.3.1.4.2.9'
p2302
sVsoy
p2303
S'63.1.3.5.2.2.1.3.3.3'
p2304
sVmbu
p2305
S'63.1.3.1.2.2.3.2.12'
p2306
sVmbv
p2307
S'63.1.1.2.4.2'
p2308
sVmbw
p2309
S'60.5.3.2'
p2310
sVmbq
p2311
S'37.4.3.5.1.5.3.1.1.1'
p2312
sVmbr
p2313
S'115.1.2'
p2314
sVzca
p2315
S'83.1.2.2.2.8'
p2316
sVwao
p2317
S'144.1'
p2318
sVwan
p2319
S'63.3.1.2.2.2.2'
p2320
sVgit
p2321
S'64.1.1'
p2322
sVgis
p2323
S'1.2.1.1.5.4'
p2324
sVwai
p2325
S'48.2.3.13'
p2326
sVwag
p2327
S'37.4.3.5.1.5.3.1.2.2.2.7'
p2328
sVwaf
p2329
S'8854'
p2330
sVgan
p2331
S'151.1.1'
p2332
sVwad
p2333
S'37.4.3.5.2.2.2.7.1.10'
p2334
sVwac
p2335
S'93.1.1'
p2336
sVwab
p2337
S'37.4.3.5.1.5.2.2.2.1.1.3'
p2338
sVgiy
p2339
S'29.2.1.2.2'
p2340
sVgix
p2341
S'63.1.3.5.1.2.4.1.2.2.2.1'
p2342
sVgid
p2343
S'1.2.1.3.1'
p2344
sVgic
p2345
S'8813'
p2346
sVgib
p2347
S'107.5.2'
p2348
sVgia
p2349
S'29.4.2'
p2350
sVwax
p2351
S'127.3.4.3.2'
p2352
sVwaw
p2353
S'73.6.2'
p2354
sVwav
p2355
S'63.1.3.5.1.1.6.3.1.7'
p2356
sVgim
p2357
S'60.17.1.1.2'
p2358
sVwat
p2359
S'37.4.3.5.1.5.3.1.2.2.1.5'
p2360
sVwas
p2361
S'126.75'
p2362
sVwaq
p2363
S'29.6.11.1'
p2364
sVwap
p2365
S'142.1.2.2.3'
p2366
sVchw
p2367
S'63.1.3.1.2.2.6.1.11.6.1'
p2368
sVure
p2369
S'97.2'
p2370
sVigm
p2371
S'127.3.6.2'
p2372
sVhks
p2373
S'137.52'
p2374
sVybk
p2375
S'151.2.3.3.3.6'
p2376
sVura
p2377
S'126.71'
p2378
sVmtx
p2379
S'83.1.1.2.2.44'
p2380
sVmty
p2381
S'52.6.1.6'
p2382
sVazm
p2383
S'83.1.1.1.2'
p2384
sVaja
p2385
S'67.2.2.2.1'
p2386
sViqu
p2387
S'152.1.2'
p2388
sVaza
p2389
S'151.2.3.3.3.4'
p2390
sVmtp
p2391
S'7.2.2'
p2392
sVmtq
p2393
S'33.1.9.3.2'
p2394
sVxwr
p2395
S'48.1.2.1.4'
p2396
sVmtt
p2397
S'37.4.3.5.1.2.1.5.3.2.20'
p2398
sVazg
p2399
S'83.1.1.1.3'
p2400
sVbrq
p2401
S'127.3.5.1'
p2402
sVmth
p2403
S'37.4.3.5.2.2.2.7.1.5'
p2404
sVmti
p2405
S'60.32.1.5'
p2406
sVmtn
p2407
S'23.1.1.2'
p2408
sVmtl
p2409
S'1.2.4.1.3.1.2.3'
p2410
sVmtb
p2411
S'63.1.3.4.2.5.6.1.2.1.3'
p2412
sVmtc
p2413
S'60.22.1.5.3'
p2414
sVxwe
p2415
S'63.1.3.4.1.2.10'
p2416
sVmtf
p2417
S'127.2.4.2'
p2418
sVmtg
p2419
S'60.24.1.5'
p2420
sVxwa
p2421
S'126.39'
p2422
sVkhx
p2423
S'63.1.3.1.2.2.6.1.1.29.1'
p2424
sVnnn
p2425
S'1.2.3.6'
p2426
sVkhz
p2427
S'37.4.3.5.1.5.3.2.1.2.2'
p2428
sVnnl
p2429
S'151.2.5.4.1.5'
p2430
sVnnk
p2431
S'60.13.1.6.4'
p2432
sVnnj
p2433
S'67.3.3.1.2.2.2.2'
p2434
sVkhp
p2435
S'90.1.1'
p2436
sVnnf
p2437
S'60.13.1.2.5'
p2438
sVkhr
p2439
S'33.2.2.1.2'
p2440
sVnnd
p2441
S'37.4.3.5.1.2.1.5.3.2.2'
p2442
sVnnc
p2443
S'1.2.2.1.2.1.3'
p2444
sVnnb
p2445
S'63.1.3.1.2.2.6.1.6.9.1'
p2446
sVkhv
p2447
S'79.1.7.2.3'
p2448
sVckh
p2449
S'151.2.5.3.2.1'
p2450
sVkhh
p2451
S'149.4'
p2452
sVgeb
p2453
S'127.3.3.3'
p2454
sVkhk
p2455
S'43.1.3.1.2.1'
p2456
sVkhl
p2457
S'37.4.3.5.1.5.2.2.1.1.3'
p2458
sVkhm
p2459
S'33.1.2.3.1'
p2460
sVnny
p2461
S'29.11.3'
p2462
sVnnw
p2463
S'63.1.3.5.2.2.2.4.2.5'
p2464
sVkha
p2465
S'33.1.5.1.1'
p2466
sVnnu
p2467
S'63.1.3.4.2.5.6.2.1.3'
p2468
sVkhc
p2469
S'37.4.2.1.2.2.2.2'
p2470
sVkhd
p2471
S'20.1.2.4'
p2472
sVvwa
p2473
S'33.1.5.4.1.3.3.1'
p2474
sVkhf
p2475
S'33.1.5.2.2.1.2'
p2476
sVnnp
p2477
S'151.2.5.1.2.13'
p2478
sVmrl
p2479
S'37.4.3.5.1.2.1.3.1.4.2.4'
p2480
sVxkh
p2481
S'8822'
p2482
sVxki
p2483
S'137.69'
p2484
sVxkn
p2485
S'37.4.13.2.4.1.1.5'
p2486
sVxko
p2487
S'33.1.5.4.1.1.2'
p2488
sVxkl
p2489
S'37.4.13.2.4.2.1'
p2490
sVckt
p2491
S'113.1.1.1'
p2492
sVtit
p2493
S'44.1'
p2494
sVtiv
p2495
S'63.1.3.1.2.2.9.17'
p2496
sVtiw
p2497
S'29.12.1'
p2498
sVtip
p2499
S'48.1.2.1.5'
p2500
sVtiq
p2501
S'63.1.3.5.2.7.1'
p2502
sVtir
p2503
S'1.6.2.1.1.4'
p2504
sVxke
p2505
S'37.4.13.2.4.1.3.4'
p2506
sVtil
p2507
S'135.2'
p2508
sVtim
p2509
S'60.13.2.3.11'
p2510
sVxkx
p2511
S'37.4.3.5.1.5.2.2.2.8.2.2.2'
p2512
sVurw
p2513
S'60.22.3.6.2'
p2514
sVtih
p2515
S'37.4.13.2.3.2.1.6'
p2516
sVtii
p2517
S'63.1.3.1.2.2.6.2.2.36.1'
p2518
sVteb
p2519
S'68.3.5'
p2520
sVtik
p2521
S'63.1.3.1.2.2.8.1'
p2522
sVtid
p2523
S'37.4.13.2.3.2.3.5'
p2524
sVxks
p2525
S'37.4.2.1.2.2.1.1.1.1'
p2526
sVtif
p2527
S'60.28.2.2.8'
p2528
sVtig
p2529
S'1.6.2.1.1.3'
p2530
sVxkv
p2531
S'63.1.3.1.2.2.6.1.13.14.1'
p2532
sVxkw
p2533
S'8823'
p2534
sVxkt
p2535
S'63.1.3.5.2.2.1.3.4.3.4'
p2536
sVxku
p2537
S'63.1.3.1.2.2.6.1.5.2.2'
p2538
sVkvf
p2539
S'1.2.2.1.2.2.2'
p2540
sVkvg
p2541
S'60.23.1.1'
p2542
sVkve
p2543
S'37.4.13.2.3.2.3.2'
p2544
sVkvc
p2545
S'37.4.3.5.1.5.2.2.1.1.2'
p2546
sVkva
p2547
S'79.1.1.1.3'
p2548
sVsqs
p2549
S'137.117'
p2550
sVkvo
p2551
S'37.4.3.1.3'
p2552
sVsqq
p2553
S'33.1.2.1.5.1.4'
p2554
sVkvm
p2555
S'63.1.3.1.2.2.4.2'
p2556
sVkvj
p2557
S'1.2.1.1.3.5'
p2558
sVcnt
p2559
S'83.2.1.1.10'
p2560
sVkvh
p2561
S'37.4.3.3.9'
p2562
sVkvi
p2563
S'1.2.2.1.3.2'
p2564
sVkvv
p2565
S'37.4.3.1.6'
p2566
sVkvw
p2567
S'60.37.2.2'
p2568
sVkvt
p2569
S'151.2.2.2.2'
p2570
sVkvu
p2571
S'151.2.2.2.3'
p2572
sVkvp
p2573
S'37.4.3.1.7'
p2574
sVkvq
p2575
S'151.2.2.1.2'
p2576
sVykg
p2577
S'140.1'
p2578
sVsqa
p2579
S'63.1.3.1.9.2.6.8'
p2580
sVkvz
p2581
S'60.28.2.3.3'
p2582
sVkvy
p2583
S'151.2.2.2.4'
p2584
sVnxu
p2585
S'90.2.3'
p2586
sVbzf
p2587
S'147.4.2'
p2588
sVnxq
p2589
S'151.2.4.4.3'
p2590
sVfor
p2591
S'60.17.1.1.1'
p2592
sVnxr
p2593
S'60.28.2.1.4'
p2594
sVurx
p2595
S'52.3.6'
p2596
sVfos
p2597
S'37.3.3.1'
p2598
sVfsl
p2599
S'137.39'
p2600
sVnkr
p2601
S'37.4.3.5.1.2.1.1.1.2.1.2.2.3'
p2602
sVuvl
p2603
S'37.4.3.5.1.5.2.2.2.5.1'
p2604
sVckx
p2605
S'63.1.3.1.2.2.9.6'
p2606
sVnxe
p2607
S'37.4.3.3.20'
p2608
sVnxd
p2609
S'63.1.3.1.2.2.6.2.3.27.1'
p2610
sVnxg
p2611
S'37.4.3.3.21'
p2612
sVnks
p2613
S'60.2.1.3'
p2614
sVnxa
p2615
S'37.4.3.12.1.10'
p2616
sVmrr
p2617
S'141.3.1.1.4'
p2618
sVnkt
p2619
S'63.1.3.1.2.2.6.1.9.22.4'
p2620
sVnxo
p2621
S'63.1.3.1.2.2.6.2.2.4.1'
p2622
sVnxi
p2623
S'63.1.3.1.2.2.6.1.10.3.1'
p2624
sVyki
p2625
S'134.2'
p2626
sVnxk
p2627
S'151.2.5.4.7.3'
p2628
sVnku
p2629
S'63.1.3.5.2.3.2'
p2630
sVroh
p2631
S'46.8.2.2.2.1.1.2.2.3'
p2632
sVllx
p2633
S'37.4.3.5.1.2.1.1.1.1.3'
p2634
sVkgg
p2635
S'126.37'
p2636
sVron
p2637
S'46.8.2.1.2'
p2638
sVroo
p2639
S'75.3.2'
p2640
sVlls
p2641
S'137.74'
p2642
sVrob
p2643
S'37.4.18.4.5.3'
p2644
sVllp
p2645
S'37.4.3.5.1.2.1.5.3.1.1'
p2646
sVrod
p2647
S'63.1.3.1.9.2.6.7'
p2648
sVroe
p2649
S'37.4.3.5.1.5.2.2.2.6.2'
p2650
sVllu
p2651
S'37.4.3.5.1.2.3.2.1.2.7'
p2652
sVsiv
p2653
S'147.7.2.6'
p2654
sVosi
p2655
S'37.4.6.4'
p2656
sVnkx
p2657
S'63.1.2.2.2.1.1'
p2658
sVlli
p2659
S'63.1.3.1.2.2.6.2.2.32.1'
p2660
sVllh
p2661
S'151.2.3.3.1.11'
p2662
sVllo
p2663
S'33.1.2.2.2.3.1'
p2664
sVlln
p2665
S'1.2.2.1.2.1.2'
p2666
sVllm
p2667
S'37.4.2.1.2.2.1.1.1.2'
p2668
sVlll
p2669
S'52.4.1'
p2670
sVllc
p2671
S'63.3.2.1.1.1.2.1.2.3'
p2672
sVdbm
p2673
S'63.1.3.1.2.2.3.2.3'
p2674
sVror
p2675
S'37.4.3.3.27'
p2676
sVykl
p2677
S'151.2.3.3.3.8'
p2678
sVllf
p2679
S'37.4.3.5.1.1.1.1.3.2'
p2680
sVlle
p2681
S'37.4.3.5.1.1.1.1.1.8'
p2682
sVlld
p2683
S'46.8.2.2.2.1.1.2.2.2'
p2684
sVbqf
p2685
S'63.1.1.3.2.3.1.2'
p2686
sVbqg
p2687
S'63.1.3.5.2.2.2.4.1.1'
p2688
sVbqd
p2689
S'886'
p2690
sVkgj
p2691
S'151.2.7.2.1.2.1.2'
p2692
sVbqb
p2693
S'48.1.2.1.1'
p2694
sVdbo
p2695
S'63.1.3.1.2.2.3.2.4'
p2696
sVvep
p2697
S'92.1.10'
p2698
sVbqa
p2699
S'63.1.3.4.2.5.6.2.1.14'
p2700
sVmsl
p2701
S'8834'
p2702
sVbqo
p2703
S'63.1.3.1.2.2.9.3'
p2704
sVbql
p2705
S'60.22.1.7.4.1'
p2706
sVbqm
p2707
S'63.1.3.1.2.2.6.2.1.18.1'
p2708
sVbqj
p2709
S'63.1.1.2.1.2.2.1.1.1'
p2710
sVbqk
p2711
S'63.1.3.5.1.2.1.1.1.3.1'
p2712
sVlwa
p2713
S'63.1.3.1.2.2.6.1.8.15.1'
p2714
sVbqw
p2715
S'63.1.3.1.2.3.2'
p2716
sVbqu
p2717
S'63.1.3.1.2.2.6.1.1.4.1'
p2718
sVbqr
p2719
S'37.4.13.3.2'
p2720
sVjvn
p2721
S'37.4.6.3'
p2722
sVbqp
p2723
S'63.3.1.1.2.3'
p2724
sVbqq
p2725
S'122.4.3.1'
p2726
sVven
p2727
S'63.1.3.1.2.2.6.1.13.20.1'
p2728
sVveo
p2729
S'117.1.4'
p2730
sVvem
p2731
S'1.2.1.1.4.1.3'
p2732
sVbqz
p2733
S'63.1.3.1.2.2.6.2.1.38.2'
p2734
sVbqx
p2735
S'63.1.3.1.9.2.5.1'
p2736
sVjeb
p2737
S'69.2'
p2738
sVztn
p2739
S'83.1.2.2.2.34'
p2740
sVdbb
p2741
S'1.2.4.1.2.1.1.4'
p2742
sVlrg
p2743
S'29.7.1'
p2744
sVkle
p2745
S'151.2.7.2.2.1.9'
p2746
sVlri
p2747
S'63.1.3.1.2.2.6.1.6.27.1'
p2748
sVybh
p2749
S'151.2.7.2.2.1.22'
p2750
sVykt
p2751
S'151.2.3.3.3.7'
p2752
sVlrm
p2753
S'63.1.3.1.2.2.6.1.6.23.3'
p2754
sVlro
p2755
S'63.2.1.2.1.1.1.2'
p2756
sVlrn
p2757
S'37.4.3.1.9'
p2758
sVlhu
p2759
S'151.2.3.3.1.5'
p2760
sVwma
p2761
S'8833'
p2762
sVdbg
p2763
S'63.1.3.2.7'
p2764
sVlrv
p2765
S'37.4.3.5.1.2.1.5.2.2.2'
p2766
sVlrz
p2767
S'37.4.3.5.1.2.1.5.3.2.14'
p2768
sVyky
p2769
S'63.1.3.5.1.2.3.6'
p2770
sVpuu
p2771
S'63.1.3.1.2.2.6.2.2.27.1'
p2772
sVguc
p2773
S'142.1.2.1.4'
p2774
sVdim
p2775
S'1.5.2.2'
p2776
sVgua
p2777
S'63.1.3.1.2.2.3.2.13'
p2778
sVdio
p2779
S'63.1.3.1.10.2.1'
p2780
sVmma
p2781
S'63.1.3.1.2.2.3.2.10'
p2782
sVerr
p2783
S'29.5.1'
p2784
sVdij
p2785
S'37.4.3.2.1.2'
p2786
sVgud
p2787
S'63.1.3.3.2.3.2'
p2788
sVjhi
p2789
S'33.1.1.2.2.2'
p2790
sVito
p2791
S'126.29'
p2792
sVguh
p2793
S'22.1.1'
p2794
sVguo
p2795
S'22.2'
p2796
sVdia
p2797
S'52.6.3.2'
p2798
sVdib
p2799
S'67.3.3.3.1.1.3'
p2800
sVdic
p2801
S'63.1.3.3.2.3.1'
p2802
sVgus
p2803
S'137.45'
p2804
sVgur
p2805
S'63.1.3.5.2.2.1.3.4.2.1'
p2806
sVjhs
p2807
S'137.65'
p2808
sVgup
p2809
S'29.6.6.1'
p2810
sVdix
p2811
S'37.4.3.5.1.2.1.5.2.3.1'
p2812
sVdiy
p2813
S'60.2.2.1'
p2814
sVdiz
p2815
S'63.1.3.1.2.2.6.2.2.41.1'
p2816
sVdeq
p2817
S'63.1.3.5.1.2.3.1'
p2818
sVguz
p2819
S'63.1.3.1.2.2.6.1.6.17.1'
p2820
sVnos
p2821
S'151.2.3.3.3.19'
p2822
sVgux
p2823
S'63.1.3.5.2.2.1.3.3.1'
p2824
sVdip
p2825
S'67.3.3.3.1.1.1'
p2826
sVdir
p2827
S'63.1.3.1.2.1.1.1'
p2828
sVver
p2829
S'63.1.3.5.1.1.6.1.3.2.2.2.2'
p2830
sVpmw
p2831
S'27.2.1.1'
p2832
sVtkp
p2833
S'37.4.3.5.1.2.1.1.1.2.1.2.3.8'
p2834
sVpmr
p2835
S'60.22.4.3.3.1'
p2836
sVpms
p2837
S'46.8.2.2.2.1.1.1.4'
p2838
sVxho
p2839
S'63.1.3.1.2.2.6.1.13.4.1'
p2840
sVsys
p2841
S'67.2.2.1.4.1'
p2842
sVpmy
p2843
S'133.11.13'
p2844
sVpmf
p2845
S'37.4.2.2.1.2.1'
p2846
sVrui
p2847
S'63.1.3.1.2.2.6.1.11.9.1'
p2848
sVhts
p2849
S'126.25'
p2850
sVpma
p2851
S'37.4.3.5.1.2.1.5.3.2.25'
p2852
sVpmb
p2853
S'63.1.3.5.1.2.5.1.2'
p2854
sVpmc
p2855
S'37.4.3.4.2.4'
p2856
sVpml
p2857
S'107.10.1'
p2858
sVpmm
p2859
S'63.1.3.1.2.2.6.2.1.30.1'
p2860
sVpmn
p2861
S'63.1.3.5.1.1.7.4.4.3'
p2862
sVpmo
p2863
S'37.4.3.5.2.2.2.7.1.7'
p2864
sVpmi
p2865
S'151.2.4.5.3'
p2866
sVpmj
p2867
S'151.2.4.5.4'
p2868
sVafe
p2869
S'63.1.3.1.3.1.9'
p2870
sVzrs
p2871
S'146.1'
p2872
sVzrp
p2873
S'46.8.2.2.2.1.1.2.1.1.6'
p2874
sVdbu
p2875
S'63.1.3.2.5'
p2876
sVnll
p2877
S'126.47'
p2878
sVcga
p2879
S'136.3'
p2880
sVdek
p2881
S'63.1.3.5.1.1.7.4.4.1'
p2882
sVnlo
p2883
S'63.1.3.1.2.2.6.2.2.42.1'
p2884
sVkxv
p2885
S'141.3.1.2.2.1.3'
p2886
sVzrn
p2887
S'1.2.2.2.1.2.6'
p2888
sVklq
p2889
S'60.36.1.1'
p2890
sVydk
p2891
S'60.22.1.2.19'
p2892
sVkst
p2893
S'63.1.3.5.2.2.2.4.3.10'
p2894
sVgbe
p2895
S'147.7.4.3'
p2896
sVyde
p2897
S'52.6.1.8'
p2898
sVhsl
p2899
S'137.48'
p2900
sVymz
p2901
S'151.2.3.3.3.17'
p2902
sVafg
p2903
S'137.2'
p2904
sVeko
p2905
S'63.1.3.1.2.2.6.1.11.2.1'
p2906
sVboy
p2907
S'63.1.3.1.2.2.6.1.1.9.1'
p2908
sVhbo
p2909
S'1.6.1.2.2.2'
p2910
sVhbn
p2911
S'63.2.1.2.1.1.1.1'
p2912
sVekk
p2913
S'92.1.1'
p2914
sVngb
p2915
S'63.1.3.5.1.2.3.4'
p2916
sVeki
p2917
S'63.1.3.1.3.2.2.1.1'
p2918
sVbop
p2919
S'60.13.1.6.1'
p2920
sVboq
p2921
S'60.8.1'
p2922
sVbor
p2923
S'57.1'
p2924
sVbos
p2925
S'46.3.2.2.2.1'
p2926
sVhba
p2927
S'63.1.3.1.2.2.6.2.3.57.1'
p2928
sVbou
p2929
S'63.1.3.1.2.2.6.1.4.15.1'
p2930
sVbov
p2931
S'63.1.3.4.1.4.4'
p2932
sVbow
p2933
S'20.1.2.9'
p2934
sVboh
p2935
S'63.1.3.1.2.2.6.2.2.37.1'
p2936
sVngl
p2937
S'63.1.3.1.2.2.6.1.11.4.1'
p2938
sVboj
p2939
S'60.22.3.4.1'
p2940
sVbok
p2941
S'63.1.3.1.2.2.6.2.3.46.1'
p2942
sVbol
p2943
S'1.2.4.1.2.1.1.2'
p2944
sVbon
p2945
S'6.1'
p2946
sVhbu
p2947
S'37.4.3.12.1.2'
p2948
sVboa
p2949
S'112.1.1'
p2950
sViap
p2951
S'8816'
p2952
sVboe
p2953
S'63.1.3.1.2.2.12.4'
p2954
sVbof
p2955
S'63.3.2.1.1.1.2.1.1.1'
p2956
sVekp
p2957
S'63.1.3.1.7.1.1'
p2958
sVuzn
p2959
S'80.2.5'
p2960
sVjau
p2961
S'37.4.3.5.2.2.2.8.1'
p2962
sVesn
p2963
S'137.108'
p2964
sVipi
p2965
S'60.12.2.3'
p2966
sVipo
p2967
S'60.16.1.1'
p2968
sVngi
p2969
S'1.2.4.2.1.1.2'
p2970
sVngk
p2971
S'29.6.9.1'
p2972
sVuzs
p2973
S'80.2.6'
p2974
sVayl
p2975
S'1.6.1.2.1.17'
p2976
sVayo
p2977
S'148.1'
p2978
sVayn
p2979
S'1.6.1.2.1.24'
p2980
sVayi
p2981
S'63.1.3.1.3.2.4.3.1.3.1.3'
p2982
sVayh
p2983
S'1.6.1.2.1.10'
p2984
sVsgm
p2985
S'63.1.3.1.2.2.6.1.6.14.1'
p2986
sVmsx
p2987
S'60.22.4.1.3.3'
p2988
sVmsw
p2989
S'63.1.1.3.3.1'
p2990
sVmsu
p2991
S'37.4.3.5.1.5.2.1.1.1.1.4'
p2992
sVmss
p2993
S'37.4.3.2.2.1.4'
p2994
sVmsr
p2995
S'137.83'
p2996
sVayc
p2997
S'41.1.2'
p2998
sVmsp
p2999
S'76.2.2'
p3000
sVmso
p3001
S'60.25.2'
p3002
sVmsn
p3003
S'37.4.3.5.1.2.1.5.3.2.31'
p3004
sVksf
p3005
S'63.1.3.1.2.2.6.2.1.4.1'
p3006
sVmsj
p3007
S'63.1.3.5.1.2.4.1.1.2'
p3008
sVnce
p3009
S'126.78'
p3010
sVmsh
p3011
S'37.4.5.2.2.4'
p3012
sVmsg
p3013
S'104.2.3'
p3014
sVmsf
p3015
S'71.3'
p3016
sVmse
p3017
S'1.2.3.5'
p3018
sVkrk
p3019
S'113.1.2.2'
p3020
sVayq
p3021
S'147.8.1'
p3022
sVayp
p3023
S'1.6.1.2.1.22'
p3024
sVayr
p3025
S'41.1.1'
p3026
sVwnb
p3027
S'60.22.1.7.6.5'
p3028
sVood
p3029
S'96.2.2.3'
p3030
sVoog
p3031
S'33.1.2.2.1.1.3'
p3032
sVuar
p3033
S'60.11.1.1.1'
p3034
sVjah
p3035
S'33.1.1.1.1'
p3036
sVksb
p3037
S'63.1.3.1.2.2.6.1.4.14.1'
p3038
sVjek
p3039
S'63.3.2.1.1.1.1.1'
p3040
sVxeg
p3041
S'84.1.4'
p3042
sVksm
p3043
S'63.1.3.5.1.1.6.3.1.2'
p3044
sVapt
p3045
S'151.2.1.8.3'
p3046
sVcbe
p3047
S'889'
p3048
sVoor
p3049
S'133.1.2'
p3050
sVyiv
p3051
S'151.2.3.3.3.20'
p3052
sVwnc
p3053
S'60.13.1.4.3'
p3054
sVfly
p3055
S'133.1.1'
p3056
sVsrl
p3057
S'48.1.1.1'
p3058
sVcay
p3059
S'50.1.1.1.1'
p3060
sVcax
p3061
S'126.18'
p3062
sVibm
p3063
S'63.1.3.1.3.2.4.1.1'
p3064
sVibo
p3065
S'63.1.3.1.7.2.2'
p3066
sVcas
p3067
S'47.1'
p3068
sVngx
p3069
S'1.2.1.1.2.1'
p3070
sVcaq
p3071
S'33.1.4.1.1'
p3072
sVflr
p3073
S'63.1.3.1.2.2.6.1.6.42.1'
p3074
sVibd
p3075
S'29.17.3.2'
p3076
sVcav
p3077
S'24.1'
p3078
sVcat
p3079
S'46.8.2.2.2.1.2.1.1'
p3080
sVfli
p3081
S'1.2.1.1.8.3'
p3082
sVulk
p3083
S'6.3'
p3084
sVuli
p3085
S'37.4.3.5.1.2.1.3.1.4.2.12'
p3086
sVuln
p3087
S'133.7.1'
p3088
sVfll
p3089
S'63.1.3.5.1.1.1.1'
p3090
sVcal
p3091
S'37.4.3.5.1.2.1.3.1.4.2.1'
p3092
sVcac
p3093
S'15.2.3.1.1'
p3094
sVulc
p3095
S'72.2.1.1.3'
p3096
sVcaa
p3097
S'15.2.1.1.1.2.1'
p3098
sVksj
p3099
S'60.32.4.3'
p3100
sVcag
p3101
S'7.2'
p3102
sVibu
p3103
S'104.1.2.2'
p3104
sVcae
p3105
S'63.1.1.2.2.1'
p3106
sVcad
p3107
S'65.1'
p3108
sVspy
p3109
S'67.3.3.2.1.1.2'
p3110
sVkyi
p3111
S'37.4.13.2.1.2.1.1.2'
p3112
sVidu
p3113
S'63.1.3.1.6.1.2.2.3'
p3114
sVkym
p3115
S'63.1.3.5.1.2.5.2.2'
p3116
sVkyl
p3117
S'32.1'
p3118
sVkyc
p3119
S'60.12.2.4'
p3120
sVspq
p3121
S'46.8.2.2.2.1.2.3.2.4'
p3122
sVkya
p3123
S'63.1.3.1.2.2.6.1.6.6.1'
p3124
sVygp
p3125
S'151.2.3.3.2.5'
p3126
sVkyg
p3127
S'60.17.1.5.4'
p3128
sVspu
p3129
S'33.1.2.1.5.4.3'
p3130
sVkye
p3131
S'63.1.3.4.2.5.6.2.1.9'
p3132
sVkyd
p3133
S'37.4.3.1.4'
p3134
sVcbk
p3135
S'133.14.1'
p3136
sVspi
p3137
S'122.3.2'
p3138
sVnma
p3139
S'151.2.5.4.8.3'
p3140
sVtbz
p3141
S'63.1.3.5.2.2.1.3.2.2'
p3142
sVspl
p3143
S'60.13.2.3.8'
p3144
sVspm
p3145
S'127.3.3.1'
p3146
sVspn
p3147
S'3.5'
p3148
sVkys
p3149
S'37.4.13.2.4.1.1.3'
p3150
sVspa
p3151
S'46.8.2.2.2.1.2.3.2.3'
p3152
sVspc
p3153
S'126.58'
p3154
sVspd
p3155
S'60.22.3.7.3'
p3156
sVspe
p3157
S'37.4.3.5.1.5.2.4.1.2.5'
p3158
sVkyu
p3159
S'151.2.2.1.5'
p3160
sVspg
p3161
S'37.4.13.1.1.6'
p3162
sVnyy
p3163
S'63.1.3.1.2.2.6.1.9.18.1'
p3164
sVpww
p3165
S'151.2.2.3.3'
p3166
sVsbt
p3167
S'8824'
p3168
sVjen
p3169
S'63.1.3.5.1.1.9.1.2'
p3170
sVnyr
p3171
S'63.1.3.1.2.2.6.1.9.22.1'
p3172
sVsnm
p3173
S'67.2.1.4.3.2'
p3174
sVnyp
p3175
S'67.3.2.2.1'
p3176
sVkxo
p3177
S'126.30'
p3178
sVnyv
p3179
S'29.9.7'
p3180
sVnyu
p3181
S'63.1.3.1.2.2.6.1.10.11.1'
p3182
sVnyj
p3183
S'63.1.3.1.2.2.6.1.1.37.1'
p3184
sVnyk
p3185
S'63.1.3.1.2.2.6.1.12.5.1'
p3186
sVnyh
p3187
S'29.9.6'
p3188
sVnyi
p3189
S'67.3.4.2.2'
p3190
sVnyn
p3191
S'63.1.3.1.2.2.6.1.6.35.1'
p3192
sVnyo
p3193
S'63.1.3.1.2.2.6.1.6.32.1'
p3194
sVnyl
p3195
S'33.1.2.2.3.3.1'
p3196
sVkxa
p3197
S'37.4.3.5.1.5.2.4.1.1.2'
p3198
sVnyb
p3199
S'63.1.3.4.1.1.2'
p3200
sVbgt
p3201
S'37.4.3.5.1.2.3.1.1.1'
p3202
sVnya
p3203
S'63.1.3.1.2.2.6.1.10.1.1'
p3204
sVnyf
p3205
S'63.1.3.1.2.2.6.1.2.16.3'
p3206
sVnyg
p3207
S'63.1.3.1.2.2.6.1.6.48.1'
p3208
sVnyd
p3209
S'63.1.3.1.2.2.6.1.6.24.1'
p3210
sVnye
p3211
S'63.1.3.1.2.2.6.1.7.6.1'
p3212
sVsnf
p3213
S'63.1.1.2.2.3'
p3214
sVpqa
p3215
S'1.2.4.2.2.7'
p3216
sVaoe
p3217
S'60.12.1.2'
p3218
sVtbr
p3219
S'67.5.6'
p3220
sVaoc
p3221
S'73.3.1.1.2'
p3222
sVsnc
p3223
S'37.4.3.5.1.5.3.2.1.2.4'
p3224
sVmaw
p3225
S'63.1.3.5.2.2.1.3.4.3.6'
p3226
sVsna
p3227
S'63.1.3.1.2.2.6.1.13.8.2'
p3228
sVaon
p3229
S'52.1.1.2'
p3230
sVaom
p3231
S'60.32.3.1.4'
p3232
sVaol
p3233
S'37.4.3.3.2'
p3234
sVaok
p3235
S'37.4.3.5.1.2.1.4.3.2.1.3'
p3236
sVaoj
p3237
S'52.1.1.4'
p3238
sVaoi
p3239
S'29.6.3.1'
p3240
sVmgn
p3241
S'63.1.3.5.1.2.3.3'
p3242
sVsnv
p3243
S'37.4.13.2.3.1.5'
p3244
sVsnw
p3245
S'63.1.3.4.2.5.3.2.2'
p3246
sVsnu
p3247
S'53.3.7'
p3248
sVaos
p3249
S'53.2.2'
p3250
sVmad
p3251
S'37.4.9.2'
p3252
sVsnp
p3253
S'60.17.1.6.1'
p3254
sVmaf
p3255
S'1.2.1.1.5.7'
p3256
sVkyf
p3257
S'63.1.3.3.2.2.1.2'
p3258
sVmah
p3259
S'37.4.3.5.1.2.1.3.1.3.1'
p3260
sVmak
p3261
S'37.4.18.3.4'
p3262
sVtbv
p3263
S'60.13.2.3.12'
p3264
sVmam
p3265
S'15.2.2.2.2.1'
p3266
sVyll
p3267
S'52.6.3.11'
p3268
sVsnx
p3269
S'60.22.3.4.4'
p3270
sVaox
p3271
S'142.1.2.2.1'
p3272
sVkxx
p3273
S'63.1.3.1.2.2.6.2.3.24.1'
p3274
sVzna
p3275
S'63.1.3.5.1.1.7.1.10'
p3276
sVylm
p3277
S'151.2.3.3.1.14'
p3278
sVzng
p3279
S'33.1.5.3.1'
p3280
sVcsk
p3281
S'63.1.1.2.1.2.2.1.4.1'
p3282
sVzne
p3283
S'63.1.3.5.1.2.5.2.4'
p3284
sVghs
p3285
S'60.15.2.1'
p3286
sVznk
p3287
S'29.17.3.3'
p3288
sVgea
p3289
S'1.2.4.1.2.1.1.7'
p3290
sVskf
p3291
S'76.6.4'
p3292
sVysd
p3293
S'151.2.3.3.2.11'
p3294
sVtbm
p3295
S'63.1.3.5.1.2.4.2.3.2.3'
p3296
sVcli
p3297
S'63.1.3.5.2.2.2.4.3.1'
p3298
sVida
p3299
S'63.1.3.1.2.2.6.1.6.16.1'
p3300
sVdyi
p3301
S'63.1.3.5.2.5.6.1'
p3302
sVmbl
p3303
S'11.1'
p3304
sVtty
p3305
S'122.4.3.8'
p3306
sVlse
p3307
S'63.1.3.1.2.2.6.2.3.11.2'
p3308
sVmgu
p3309
S'60.32.5.5'
p3310
sVttr
p3311
S'1.2.1.1.1.2.2'
p3312
sVttq
p3313
S'1.1.3.2.1'
p3314
sVttp
p3315
S'37.4.2.2.1.2.2'
p3316
sVttv
p3317
S'37.4.3.5.1.1.1.1.1.12'
p3318
sVlsh
p3319
S'151.2.1.4.3'
p3320
sVlsi
p3321
S'151.2.3.1.1.3'
p3322
sVttk
p3323
S'87.1.6'
p3324
sVgek
p3325
S'1.2.4.1.3.2.1'
p3326
sVtti
p3327
S'37.4.3.5.1.5.2.3.1.3'
p3328
sVtth
p3329
S'33.1.2.2.1.1.5'
p3330
sVtto
p3331
S'33.1.2.2.1.1.4'
p3332
sVenn
p3333
S'63.1.3.1.5.1.2'
p3334
sVlsp
p3335
S'137.93'
p3336
sVssd
p3337
S'60.22.3.3.5'
p3338
sVttc
p3339
S'15.2.2.2.2.2'
p3340
sVttb
p3341
S'63.1.3.1.2.1.1.3'
p3342
sVeno
p3343
S'8812'
p3344
sVttg
p3345
S'37.4.13.2.1.2.1.2.3'
p3346
sVkxr
p3347
S'37.4.3.5.1.1.1.1.1.5'
p3348
sVtte
p3349
S'37.4.3.5.1.5.3.1.3.2'
p3350
sVttd
p3351
S'60.32.2.2.3'
p3352
sVjig
p3353
S'29.14.1'
p3354
sVjie
p3355
S'1.2.1.2.1.1'
p3356
sVdju
p3357
S'147.7.2.4'
p3358
sVjic
p3359
S'66.1'
p3360
sVdjw
p3361
S'29.9.2'
p3362
sVenq
p3363
S'60.12.2.2'
p3364
sVjil
p3365
S'60.22.3.5.1'
p3366
sVjim
p3367
S'1.2.1.1.8.7'
p3368
sVenr
p3369
S'99.1.1'
p3370
sVvto
p3371
S'48.2.3.12'
p3372
sVkxu
p3373
S'141.3.1.2.2.1.2'
p3374
sVjiv
p3375
S'70.1.3'
p3376
sVjit
p3377
S'63.1.3.1.2.2.6.1.6.5.1'
p3378
sVneb
p3379
S'63.3.1.2.1.2.2.3'
p3380
sVdjd
p3381
S'29.3.1'
p3382
sVmbe
p3383
S'126.42'
p3384
sVdjj
p3385
S'29.6.1.2'
p3386
sVdjm
p3387
S'63.1.3.2.9'
p3388
sVahh
p3389
S'60.28.1.1.1'
p3390
sVdjn
p3391
S'29.6.2.1'
p3392
sVtja
p3393
S'63.1.3.3.5.3.2'
p3394
sVulm
p3395
S'37.4.18.4.4.5'
p3396
sVnoh
p3397
S'60.13.2.3.6'
p3398
sVkkx
p3399
S'37.4.5.4.1.1'
p3400
sVtjg
p3401
S'37.4.5.1.2'
p3402
sVgbg
p3403
S'63.1.3.5.1.2.4.1.2.2.3.2'
p3404
sVtji
p3405
S'151.2.4.7.1'
p3406
sVahn
p3407
S'63.1.3.1.4.2.1'
p3408
sVnof
p3409
S'60.5.1.5'
p3410
sVkkv
p3411
S'37.4.9.1'
p3412
sVkkq
p3413
S'63.1.3.1.2.2.6.1.1.12.1'
p3414
sVshr
p3415
S'63.1.3.1.2.2.6.1.6.51.1'
p3416
sVkks
p3417
S'1.2.4.1.2.1.1.8'
p3418
sVnoc
p3419
S'60.13.1.1.9'
p3420
sVkkm
p3421
S'63.1.3.1.3.2.4.4.1'
p3422
sVkkl
p3423
S'60.24.1.6'
p3424
sVsgg
p3425
S'137.120'
p3426
sVkkn
p3427
S'33.1.5.4.1.1.3'
p3428
sVkki
p3429
S'63.1.3.1.2.2.6.1.4.10.1'
p3430
sVsoo
p3431
S'63.1.3.1.2.2.6.2.2.40.1'
p3432
sVnoz
p3433
S'1.5.1.1.2'
p3434
sVkkj
p3435
S'63.1.3.1.2.2.6.2.1.31.1'
p3436
sVkke
p3437
S'63.3.2.1.1.1.2.1.2.1'
p3438
sVnou
p3439
S'60.15.1.2.2.1.3.1'
p3440
sVnow
p3441
S'63.1.3.1.2.2.6.1.6.1.1'
p3442
sVnop
p3443
S'60.13.1.1.10'
p3444
sVnoq
p3445
S'63.1.3.1.2.2.6.1.5.13.2'
p3446
sVkkc
p3447
S'60.10.5'
p3448
sVkkb
p3449
S'122.4.3.5'
p3450
sVulb
p3451
S'63.1.3.1.4.3.1.12'
p3452
sVaew
p3453
S'127.3.1.2'
p3454
sVnqq
p3455
S'151.2.5.1.2.4'
p3456
sVshw
p3457
S'63.2.1.2.2.1'
p3458
sVppq
p3459
S'147.3.1'
p3460
sVxla
p3461
S'60.18.1'
p3462
sVaey
p3463
S'60.22.1.1.1'
p3464
sVppp
p3465
S'63.1.3.1.2.2.6.1.5.13.3'
p3466
sVtbp
p3467
S'122.2.1'
p3468
sVdid
p3469
S'67.3.1.4.2.2.1.1.1'
p3470
sVafu
p3471
S'63.1.3.4.2.5.6.2.2.1'
p3472
sVppu
p3473
S'37.11.1.2'
p3474
sVqvc
p3475
S'123.2.2.1.1'
p3476
sVppt
p3477
S'60.3.2'
p3478
sVkjp
p3479
S'151.2.2.3.2'
p3480
sVsox
p3481
S'63.1.3.1.2.2.6.2.1.42.1'
p3482
sVgbi
p3483
S'104.1.1.1'
p3484
sVbka
p3485
S'63.1.3.5.1.1.9.1.3'
p3486
sVsoz
p3487
S'63.1.3.1.2.2.6.1.2.21.1'
p3488
sVnib
p3489
S'60.13.1.1.6'
p3490
sVblz
p3491
S'37.4.2.1.1.1.1'
p3492
sVblv
p3493
S'63.1.3.1.2.2.6.1.5.9.1'
p3494
sVblq
p3495
S'37.4.3.5.1.1.1.3.1'
p3496
sVeja
p3497
S'63.1.1.2.1.2.2.1.2.1'
p3498
sVbls
p3499
S'37.4.2.3.2.2.1'
p3500
sVblr
p3501
S'33.1.5.4.1.3.1.1'
p3502
sVblm
p3503
S'67.2.2.1.1.3.1'
p3504
sVblo
p3505
S'63.1.3.4.2.5.1.2'
p3506
sVgbu
p3507
S'29.6.4.1'
p3508
sVbli
p3509
S'63.1.3.1.2.2.6.2.3.10.1'
p3510
sVblh
p3511
S'63.1.3.3.3.1'
p3512
sVblk
p3513
S'151.2.2.3.5'
p3514
sVblj
p3515
S'37.4.13.2.3.2.3.1'
p3516
sVble
p3517
S'63.1.1.2.1.1.2'
p3518
sVhch
p3519
S'96.2.1.1.1'
p3520
sVbla
p3521
S'5.1.1'
p3522
sVblc
p3523
S'135.1'
p3524
sVgbs
p3525
S'63.1.3.4.1.2.5'
p3526
sVlmy
p3527
S'37.4.3.10.2.4'
p3528
sVorz
p3529
S'37.4.3.5.1.5.2.3.1.2'
p3530
sVlmq
p3531
S'37.4.3.3.12'
p3532
sVlmr
p3533
S'37.4.3.3.11'
p3534
sVorr
p3535
S'63.1.2.2.3.1.3'
p3536
sVlmu
p3537
S'37.4.3.5.1.2.1.5.3.3.2.2.1'
p3538
sVlmv
p3539
S'37.4.3.5.1.2.1.1.1.1.4'
p3540
sVlmw
p3541
S'27.2.2.2'
p3542
sVlmh
p3543
S'151.2.7.2.2.1.15'
p3544
sVoro
p3545
S'60.11.1.2.3'
p3546
sVlmj
p3547
S'37.4.3.3.14'
p3548
sVdig
p3549
S'63.1.3.1.2.2.6.1.2.17.1'
p3550
sVlml
p3551
S'37.4.3.5.1.2.1.5.3.2.9'
p3552
sVorh
p3553
S'72.1.2.2'
p3554
sVlmo
p3555
S'46.8.2.2.2.1.1.1.3'
p3556
sVlma
p3557
S'63.1.1.3.1.1'
p3558
sVlmb
p3559
S'37.4.3.5.1.2.1.5.3.5.8'
p3560
sVlmc
p3561
S'29.8.1'
p3562
sVlmd
p3563
S'63.2.4.1.4.2'
p3564
sVlme
p3565
S'1.2.3.7'
p3566
sVlmf
p3567
S'37.4.3.3.13'
p3568
sVora
p3569
S'37.4.3.5.1.2.3.2.1.3.2'
p3570
sVyuy
p3571
S'43.1.2.5'
p3572
sVyux
p3573
S'140.2'
p3574
sVyuz
p3575
S'126.81'
p3576
sVmka
p3577
S'63.4.1'
p3578
sVyur
p3579
S'5.2.2'
p3580
sVyut
p3581
S'60.13.1.6.5'
p3582
sVyuw
p3583
S'60.13.1.3.5'
p3584
sVjwi
p3585
S'63.1.3.4.2.5.6.1.2.2.2'
p3586
sVyuk
p3587
S'144.1.1'
p3588
sVyuj
p3589
S'99.1.2'
p3590
sVwdg
p3591
S'60.22.4.1.5.1'
p3592
sVyul
p3593
S'67.2.2.1.2.3'
p3594
sVasv
p3595
S'67.2.1.2.1'
p3596
sVyun
p3597
S'63.1.3.5.1.1.9.4.3.1'
p3598
sVyua
p3599
S'15.2.4.2.2'
p3600
sVyuc
p3601
S'126.80'
p3602
sVaen
p3603
S'137.8'
p3604
sVyue
p3605
S'151.1.13'
p3606
sVyud
p3607
S'1.6.1.2.1.14'
p3608
sVyug
p3609
S'128.2'
p3610
sVonj
p3611
S'60.32.1.7'
p3612
sVzao
p3613
S'83.1.2.2.2.24'
p3614
sVzal
p3615
S'151.2.3.3.1.25'
p3616
sVoni
p3617
S'37.4.3.7.2'
p3618
sVonn
p3619
S'60.4.7'
p3620
sVono
p3621
S'50.1.1.1.2'
p3622
sVzai
p3623
S'83.1.2.2.2.14'
p3624
sVzaf
p3625
S'83.1.2.2.2.4'
p3626
sVzag
p3627
S'67.9.1.2'
p3628
sVzad
p3629
S'83.1.2.2.2.5'
p3630
sVzae
p3631
S'83.1.2.2.2.51'
p3632
sVzab
p3633
S'83.1.2.2.2.31'
p3634
sVong
p3635
S'52.6.3.6'
p3636
sVgiz
p3637
S'1.2.1.1.5.5'
p3638
sVonx
p3639
S'107.9.1'
p3640
sVwaa
p3641
S'131.1.3'
p3642
sVzax
p3643
S'83.1.2.2.2.48'
p3644
sVzav
p3645
S'83.1.2.2.2.53'
p3646
sVons
p3647
S'60.13.2.3.7'
p3648
sVzat
p3649
S'83.1.2.2.2.42'
p3650
sVzar
p3651
S'83.1.2.2.2.28'
p3652
sVzas
p3653
S'83.1.2.2.2.38'
p3654
sVonu
p3655
S'37.4.3.5.1.2.1.5.3.4.12'
p3656
sVmkw
p3657
S'133.10.1'
p3658
sVyig
p3659
S'151.2.3.3.2.9'
p3660
sVnez
p3661
S'131.1'
p3662
sViai
p3663
S'37.4.3.5.1.2.1.2.2'
p3664
sVukw
p3665
S'63.1.3.1.7.2.9'
p3666
sVyin
p3667
S'33.1.5.4.2.3.2'
p3668
sVuks
p3669
S'137.68'
p3670
sVukr
p3671
S'46.3.2.1.4'
p3672
sVyik
p3673
S'151.2.3.3.1.8'
p3674
sVukp
p3675
S'63.1.3.1.3.1.8'
p3676
sVnnm
p3677
S'147.10.3'
p3678
sVrmz
p3679
S'151.2.3.1.2.4'
p3680
sVukl
p3681
S'137.130'
p3682
sVyiq
p3683
S'151.2.3.3.1.20'
p3684
sVgta
p3685
S'126.24'
p3686
sVyis
p3687
S'52.6.3.12'
p3688
sVyir
p3689
S'60.28.1.1.6'
p3690
sVukg
p3691
S'60.22.1.7.4.3'
p3692
sVrmx
p3693
S'33.1.2.1.1.3'
p3694
sVuka
p3695
S'60.31.3.3.1'
p3696
sViar
p3697
S'60.11.2.1'
p3698
sVpnx
p3699
S'33.1.5.2.4.2'
p3700
sVhuf
p3701
S'60.32.4.1'
p3702
sVhug
p3703
S'34.2'
p3704
sVhub
p3705
S'70.1.2'
p3706
sVhuc
p3707
S'118.1'
p3708
sVhul
p3709
S'37.4.3.5.1.5.3.2.1.2.1'
p3710
sVhum
p3711
S'63.1.3.1.2.2.6.1.5.12.1'
p3712
sVhun
p3713
S'92.1'
p3714
sVhuo
p3715
S'33.1.5.4.1.1.1'
p3716
sVpnu
p3717
S'38.1.1.2'
p3718
sVpnt
p3719
S'46.6.1.4'
p3720
sVhuj
p3721
S'38.1.2.13'
p3722
sVmjw
p3723
S'151.2.5.4.3.2'
p3724
sVpni
p3725
S'37.4.13.2.4.1.3.1'
p3726
sVaif
p3727
S'52.6.1.1'
p3728
sVhuv
p3729
S'42.3'
p3730
sVhuw
p3731
S'37.4.3.6.1'
p3732
sVhup
p3733
S'14.1.3.1.1'
p3734
sVpnl
p3735
S'63.1.3.5.2.10.2'
p3736
sVhur
p3737
S'135.1.3'
p3738
sVkmu
p3739
S'60.17.1.5.3'
p3740
sVpna
p3741
S'37.4.13.3.3'
p3742
sVpnc
p3743
S'37.4.18.4.4.4'
p3744
sVysp
p3745
S'151.2.3.3.1.18'
p3746
sVpne
p3747
S'37.4.13.2.4.3.2'
p3748
sVpng
p3749
S'63.1.3.1.9.2.6.6'
p3750
sVlnm
p3751
S'39.1'
p3752
sVgil
p3753
S'37.4.3.5.1.2.1.3.1.1.1'
p3754
sVzsr
p3755
S'83.1.2.2.2.41'
p3756
sVinp
p3757
S'142.2.3.2.2'
p3758
sVzsl
p3759
S'137.137'
p3760
sVasw
p3761
S'137.9'
p3762
sVney
p3763
S'63.1.3.3.2.3.3'
p3764
sVlnh
p3765
S'33.1.1.3.1'
p3766
sVand
p3767
S'37.4.3.5.2.2.2.7.1.2'
p3768
sVane
p3769
S'37.4.3.5.1.2.1.4.3.2.2.1'
p3770
sVprg
p3771
S'46.3.1.2.1'
p3772
sVsah
p3773
S'80.3.8'
p3774
sVsao
p3775
S'48.2.2.1'
p3776
sVsan
p3777
S'46.7.1.1'
p3778
sVsam
p3779
S'1.6.1.1.2.1'
p3780
sVanc
p3781
S'1.2.4.1.3.1.1.6'
p3782
sVprm
p3783
S'60.20.3'
p3784
sVcan
p3785
S'127.2.2.1'
p3786
sVsaa
p3787
S'1.2.2.2.3.2'
p3788
sVano
p3789
S'126.5'
p3790
sVanh
p3791
S'60.22.4.3.1.2'
p3792
sVsaf
p3793
S'63.1.3.5.2.2.1.3.4.2.3'
p3794
sVprk
p3795
S'33.1.5.4.1.3.3.2'
p3796
sVank
p3797
S'1.2.4.1.3.1.2.1'
p3798
sVpru
p3799
S'60.31.3.3.3'
p3800
sVprt
p3801
S'33.1.5.2.2.2.3'
p3802
sVprw
p3803
S'60.22.1.7.4.2'
p3804
sVsax
p3805
S'37.4.3.5.1.2.1.5.3.2.27'
p3806
sVans
p3807
S'87.1.1'
p3808
sVjls
p3809
S'137.63'
p3810
sVsar
p3811
S'142.2.2.1.2'
p3812
sVsaq
p3813
S'67.3.3.1.2.1.2.3'
p3814
sVanx
p3815
S'37.4.3.5.1.1.1.1.1.1'
p3816
sVsav
p3817
S'63.1.1.2.2.5'
p3818
sVanz
p3819
S'124.1.1'
p3820
sVprz
p3821
S'137.102'
p3822
sVrao
p3823
S'127.3.2.3'
p3824
sVbic
p3825
S'147.7.4.1'
p3826
sVzoh
p3827
S'31.2.1'
p3828
sVgkp
p3829
S'63.3.2.1.2.1.2'
p3830
sVusu
p3831
S'60.22.3.5.4'
p3832
sVgku
p3833
S'84.1.5'
p3834
sVkrt
p3835
S'67.9.2.1.5'
p3836
sVzoo
p3837
S'83.1.2.2.2.3'
p3838
sVwca
p3839
S'120.3'
p3840
sVgkn
p3841
S'63.1.3.1.3.2.3.1.1'
p3842
sVgka
p3843
S'60.13.1.5.5'
p3844
sVnew
p3845
S'151.2.7.2.1.3.1'
p3846
sVlnb
p3847
S'63.1.3.1.2.2.6.1.12.8.1'
p3848
sVttf
p3849
S'63.1.3.1.2.2.6.2.1.12.1'
p3850
sVxip
p3851
S'95.2.3'
p3852
sVall
p3853
S'141.5.1'
p3854
sVwni
p3855
S'63.1.3.1.2.2.6.1.4.20.3'
p3856
sVins
p3857
S'137.55'
p3858
sViwo
p3859
S'60.28.2.1.1'
p3860
sViwm
p3861
S'147.2.2'
p3862
sVlhp
p3863
S'151.2.7.1.2'
p3864
sVuya
p3865
S'63.1.3.1.3.2.4.1.3'
p3866
sViws
p3867
S'147.2.3'
p3868
sVnkb
p3869
S'151.2.5.4.6.1'
p3870
sVoca
p3871
S'112.2.1'
p3872
sVmok
p3873
S'60.27.1'
p3874
sVpsq
p3875
S'147.8.5'
p3876
sVkxl
p3877
S'141.2.5'
p3878
sVmrx
p3879
S'48.2.3.5'
p3880
sVmrz
p3881
S'60.23.2.1'
p3882
sVaqd
p3883
S'63.1.3.2.1'
p3884
sVmru
p3885
S'63.1.3.5.1.1.7.4.2.1.2'
p3886
sVaxx
p3887
S'37.4.3.5.1.2.1.4.3.2.2.2'
p3888
sVmrp
p3889
S'37.4.3.5.1.2.1.5.3.5.9'
p3890
sVaqg
p3891
S'63.1.3.1.4.1.1'
p3892
sVniy
p3893
S'67.2.1.1.2'
p3894
sVmrs
p3895
S'37.4.3.5.1.2.1.5.2.2.4'
p3896
sVaxb
p3897
S'26.2.1'
p3898
sVmrm
p3899
S'37.4.3.5.1.2.1.5.3.2.21'
p3900
sVwnu
p3901
S'60.22.1.7.4.4'
p3902
sVmro
p3903
S'151.2.3.2.2'
p3904
sVkyt
p3905
S'60.19.2'
p3906
sVaxg
p3907
S'884'
p3908
sVmrj
p3909
S'92.2.1'
p3910
sVmrd
p3911
S'151.2.7.2.1.2.2.2'
p3912
sVaxk
p3913
S'63.1.3.1.2.2.6.2.3.41.1'
p3914
sVmrf
p3915
S'126.21'
p3916
sVylg
p3917
S'147.4.13'
p3918
sVmra
p3919
S'33.1.5.2.3.1'
p3920
sVmrb
p3921
S'37.4.3.5.1.2.1.5.3.2.19'
p3922
sVwnw
p3923
S'108.3'
p3924
sVnlq
p3925
S'151.2.5.1.2.5'
p3926
sVtkg
p3927
S'37.4.5.2.2.11'
p3928
sVtkd
p3929
S'37.4.3.12.1.12'
p3930
sVtke
p3931
S'63.1.3.1.2.2.6.1.11.1.10'
p3932
sVnlu
p3933
S'63.1.3.4.2.5.6.2.1.11'
p3934
sVtka
p3935
S'8852'
p3936
sVtkl
p3937
S'37.4.3.5.1.2.1.1.1.2.1.2.6.1'
p3938
sVnlz
p3939
S'37.4.3.5.1.4.1.3'
p3940
sVqvp
p3941
S'123.1.1'
p3942
sVbvo
p3943
S'63.1.3.5.1.1.7.1.1'
p3944
sVtkv
p3945
S'37.4.3.5.1.5.2.2.2.3.3'
p3946
sVtkw
p3947
S'37.4.3.5.1.4.2.3'
p3948
sVnlc
p3949
S'60.24.1.3'
p3950
sVtku
p3951
S'56.2.7'
p3952
sVnle
p3953
S'63.1.3.1.2.2.6.1.6.23.2'
p3954
sVytp
p3955
S'151.2.3.3.3.37'
p3956
sVnlg
p3957
S'37.4.3.5.1.2.3.1.2.1'
p3958
sVtkq
p3959
S'63.1.3.1.3.2.3.1.3'
p3960
sVxis
p3961
S'141.2.2'
p3962
sVnlk
p3963
S'60.37.1.2.4'
p3964
sVnlj
p3965
S'63.1.3.1.2.2.6.1.1.14.1'
p3966
sVbqn
p3967
S'137.18'
p3968
sViyo
p3969
S'63.1.3.1.2.2.9.14'
p3970
sVtkx
p3971
S'60.28.2.4.1'
p3972
sVnsl
p3973
S'137.91'
p3974
sVxml
p3975
S'137.77'
p3976
sVxmm
p3977
S'133.11.11'
p3978
sVxmd
p3979
S'1.2.1.1.7.5'
p3980
sVxmf
p3981
S'82.3.2'
p3982
sVxma
p3983
S'63.1.3.1.2.2.6.1.4.23.1'
p3984
sVxmb
p3985
S'63.1.3.1.2.2.3.1.1'
p3986
sVxmc
p3987
S'63.1.3.1.2.2.6.1.11.1.4'
p3988
sVkmo
p3989
S'147.5.2'
p3990
sVxmx
p3991
S'37.4.3.5.2.2.2.4.6'
p3992
sVxmz
p3993
S'37.4.2.1.2.1.1.1.3'
p3994
sVxmt
p3995
S'37.4.3.5.2.2.2.4.7'
p3996
sVxmu
p3997
S'29.2.2.1.1'
p3998
sVxmv
p3999
S'37.4.5.2.2.2'
p4000
sVxmw
p4001
S'37.4.5.2.2.12'
p4002
sVxms
p4003
S'137.84'
p4004
sVkxh
p4005
S'1.5.2.5'
p4006
sVkxi
p4007
S'37.4.13.2.3.2.1.1'
p4008
sVgeq
p4009
S'63.1.3.5.1.2.5.2.1'
p4010
sVkxk
p4011
S'151.2.2.2.5'
p4012
sVgew
p4013
S'1.2.4.1.2.1.1.6'
p4014
sVkxm
p4015
S'33.1.2.3.2'
p4016
sVkxn
p4017
S'37.4.13.1.2.3'
p4018
sVssz
p4019
S'37.4.3.5.1.5.2.2.2.8.2.2.5'
p4020
sVssu
p4021
S'60.1.2.9'
p4022
sVgez
p4023
S'1.6.2.1.1.2'
p4024
sVgey
p4025
S'63.1.3.1.2.2.6.1.1.36.1'
p4026
sVssv
p4027
S'37.4.3.5.1.2.1.5.1.2.4'
p4028
sVssq
p4029
S'37.4.3.3.29'
p4030
sVssp
p4031
S'137.116'
p4032
sVsss
p4033
S'33.1.2.2.3.1.4'
p4034
sVssr
p4035
S'137.119'
p4036
sVssm
p4037
S'33.1.1.3.4'
p4038
sVdym
p4039
S'63.1.3.2.19'
p4040
sVsso
p4041
S'37.4.3.5.1.5.2.4.2.5'
p4042
sVdyo
p4043
S'63.1.1.2.1.2.2.1.3.1'
p4044
sVgeg
p4045
S'63.1.3.5.1.1.6.3.1.1'
p4046
sVssh
p4047
S'1.6.1.2.1.26'
p4048
sVssj
p4049
S'60.22.3.2.3'
p4050
sVdyd
p4051
S'29.9.4'
p4052
sVkxq
p4053
S'20.1.2.6'
p4054
sVssg
p4055
S'37.4.3.5.1.1.2.2'
p4056
sVdyg
p4057
S'37.4.16.1'
p4058
sVkxt
p4059
S'147.4.8'
p4060
sVdya
p4061
S'63.1.3.5.2.2.2.2.1'
p4062
sVdyb
p4063
S'29.9.3'
p4064
sVkxw
p4065
S'60.10.3'
p4066
sVsvr
p4067
S'141.3.2.3'
p4068
sVbwm
p4069
S'136.1'
p4070
sVbvl
p4071
S'137.15'
p4072
sVqui
p4073
S'89.1'
p4074
sValf
p4075
S'63.1.3.1.3.1.1'
p4076
sVdiu
p4077
S'63.1.3.1.2.2.6.1.7.13.1'
p4078
sVfqs
p4079
S'18.2'
p4080
sViqw
p4081
S'63.1.3.1.7.2.5'
p4082
sVrms
p4083
S'137.106'
p4084
sVrmp
p4085
S'60.22.1.2.12'
p4086
sVrmq
p4087
S'35.11.1'
p4088
sVffi
p4089
S'60.16.2.1'
p4090
sVrmu
p4091
S'35.18.1'
p4092
sVlnu
p4093
S'63.1.3.5.1.1.9.2.1'
p4094
sVmtv
p4095
S'60.13.1.5.1'
p4096
sVlnw
p4097
S'29.1'
p4098
sVrmb
p4099
S'29.6.10.2'
p4100
sVlnl
p4101
S'63.1.3.5.1.2.1.2.1'
p4102
sVlno
p4103
S'67.3.3.1.2.1.1.2'
p4104
sVlnn
p4105
S'37.4.3.5.1.2.1.5.1.2.2'
p4106
sVlni
p4107
S'16.2.1'
p4108
sVrmg
p4109
S'35.13.1'
p4110
sVrmd
p4111
S'35.6.1'
p4112
sVrme
p4113
S'35.7.1'
p4114
sVlnd
p4115
S'37.4.13.2.3.1.3'
p4116
sVkav
p4117
S'86.2'
p4118
sVrmi
p4119
S'35.1.1'
p4120
sVlna
p4121
S'63.1.3.5.1.2.1.2.2'
p4122
sVrmm
p4123
S'37.4.3.12.2.2.2'
p4124
sVmtj
p4125
S'145.2.2.2'
p4126
sVvkp
p4127
S'133.13.7'
p4128
sVytw
p4129
S'60.13.1.6.6'
p4130
sVain
p4131
S'126.4'
p4132
sVxwl
p4133
S'63.1.3.4.1.2.9'
p4134
sVvsv
p4135
S'137.132'
p4136
sVyla
p4137
S'39.3'
p4138
sVvki
p4139
S'63.1.3.1.14.2'
p4140
sVald
p4141
S'63.1.3.4.2.3.1'
p4142
sVzhb
p4143
S'151.2.4.5.8'
p4144
sVyip
p4145
S'151.2.3.3.3.27'
p4146
sVvkm
p4147
S'74.1.1'
p4148
sVvko
p4149
S'37.4.2.1.2.1.2.2.1'
p4150
sVmpz
p4151
S'151.2.3.3.4.11'
p4152
sVyta
p4153
S'151.2.3.3.1.23'
p4154
sVtux
p4155
S'95.2.2'
p4156
sVtuy
p4157
S'67.3.3.2.1.2.3.7'
p4158
sVtuz
p4159
S'63.1.3.5.2.2.2.5.2'
p4160
sVjcs
p4161
S'137.62'
p4162
sVtuq
p4163
S'67.9.2.2.2'
p4164
sVtus
p4165
S'50.1.2.2'
p4166
sVxiy
p4167
S'76.2.3'
p4168
sVtuv
p4169
S'67.3.3.1.2.2.2.4'
p4170
sVtuh
p4171
S'2.2.1'
p4172
sVtui
p4173
S'63.1.3.5.1.1.7.4.2.2.3'
p4174
sVtuj
p4175
S'104.1.1.8'
p4176
sVtul
p4177
S'63.1.3.5.1.1.9.3.4.2'
p4178
sVtum
p4179
S'63.1.3.1.2.2.6.1.10.15.1'
p4180
sVkat
p4181
S'82.1.1'
p4182
sVxwg
p4183
S'67.3.1.4.2.1.1.1'
p4184
sVmsd
p4185
S'137.135'
p4186
sVtua
p4187
S'52.3.7'
p4188
sVtub
p4189
S'96.1.2'
p4190
sVtuc
p4191
S'37.4.3.5.1.5.2.2.1.2.2'
p4192
sVtud
p4193
S'126.69'
p4194
sVtug
p4195
S'63.1.3.5.1.1.7.1.9'
p4196
sVgwe
p4197
S'63.1.3.1.2.2.6.1.2.5.1'
p4198
sVkjc
p4199
S'37.4.18.3.2'
p4200
sVgwg
p4201
S'63.1.3.5.1.1.9.1.9'
p4202
sVkja
p4203
S'71.4'
p4204
sVdkr
p4205
S'37.4.13.4.1.2.6'
p4206
sVkjg
p4207
S'33.1.5.2.2.1.1'
p4208
sVkjd
p4209
S'60.20.5'
p4210
sVkje
p4211
S'37.4.3.12.2.2.1'
p4212
sVvun
p4213
S'63.1.3.1.2.2.6.1.2.2.2'
p4214
sVkjk
p4215
S'37.4.18.3.3'
p4216
sVkjh
p4217
S'80.3.5'
p4218
sVgwn
p4219
S'1.2.4.1.1.1'
p4220
sVgwi
p4221
S'14.1.2.8'
p4222
sVjob
p4223
S'63.1.3.1.2.2.6.1.6.43.1'
p4224
sVdkx
p4225
S'1.2.1.1.7.4'
p4226
sVkjm
p4227
S'33.1.5.2.4.1'
p4228
sVkjr
p4229
S'37.4.3.5.2.2.2.7.2.1'
p4230
sVkjs
p4231
S'60.12.1.5'
p4232
sVgww
p4233
S'29.15.2'
p4234
sVwci
p4235
S'63.1.3.4.1.2.8'
p4236
sVbpd
p4237
S'63.1.3.5.1.2.1.1.1.2.1'
p4238
sVkjt
p4239
S'151.2.2.3.1'
p4240
sVgwr
p4241
S'63.1.3.1.2.2.6.1.6.39.1'
p4242
sVkjx
p4243
S'75.1.1'
p4244
sVkjy
p4245
S'60.12.1.4'
p4246
sVniv
p4247
S'126.23'
p4248
sVdkk
p4249
S'37.4.18.4.4.3'
p4250
sVhvk
p4251
S'37.4.3.5.1.2.1.4.2.1'
p4252
sVtun
p4253
S'126.68'
p4254
sVerh
p4255
S'63.1.3.1.5.4.1'
p4256
sVhvn
p4257
S'37.4.3.10.1.2'
p4258
sVpov
p4259
S'133.13.3'
p4260
sVhvc
p4261
S'8814'
p4262
sVhve
p4263
S'42.1'
p4264
sVpos
p4265
S'31.1.2'
p4266
sVpcw
p4267
S'1.2.4.1.3.1.2.4'
p4268
sVpon
p4269
S'37.4.3.5.1.2.1.3.1.4.1.3'
p4270
sVbfr
p4271
S'141.5.2'
p4272
sVpol
p4273
S'46.3.2.3.2.2'
p4274
sVpom
p4275
S'111.3'
p4276
sVjsl
p4277
S'137.64'
p4278
sVpof
p4279
S'63.1.3.1.2.2.6.2.3.53.1'
p4280
sVpod
p4281
S'142.3.5'
p4282
sVimn
p4283
S'53.3.4'
p4284
sVhvv
p4285
S'42.4'
p4286
sVgld
p4287
S'72.2.1.1.1'
p4288
sVwrv
p4289
S'60.14.1.3'
p4290
sVzpz
p4291
S'83.1.2.2.2.44'
p4292
sVzpq
p4293
S'83.1.2.2.2.57'
p4294
sVzpp
p4295
S'83.1.2.2.2.10'
p4296
sVbsq
p4297
S'63.1.3.3.5.1.1'
p4298
sVzpr
p4299
S'83.1.2.2.2.37'
p4300
sVzpu
p4301
S'83.1.2.2.2.50'
p4302
sVzpt
p4303
S'83.1.2.2.2.33'
p4304
sVzpw
p4305
S'83.1.2.2.2.56'
p4306
sVcqd
p4307
S'38.1.2.8'
p4308
sVzpi
p4309
S'83.1.2.2.2.36'
p4310
sVzph
p4311
S'83.1.2.2.2.47'
p4312
sVzpk
p4313
S'83.1.2.2.2.46'
p4314
sVfia
p4315
S'67.3.1.3.2.1'
p4316
sVzpm
p4317
S'83.1.2.2.2.22'
p4318
sVzpl
p4319
S'83.1.2.2.2.16'
p4320
sVzpo
p4321
S'83.1.2.2.2.2'
p4322
sVzpn
p4323
S'83.1.2.2.2.35'
p4324
sVzpa
p4325
S'83.1.2.2.2.15'
p4326
sVpcn
p4327
S'63.1.3.1.9.1.3.2'
p4328
sVzpc
p4329
S'83.1.2.2.2.7'
p4330
sVzpb
p4331
S'83.1.2.2.2.54'
p4332
sVzpe
p4333
S'83.1.2.2.2.25'
p4334
sVnne
p4335
S'63.1.3.1.2.2.6.1.12.11.1'
p4336
sVzpg
p4337
S'83.1.2.2.2.12'
p4338
sVcly
p4339
S'83.1.2.2.1.1'
p4340
sVbmb
p4341
S'63.1.3.1.2.2.6.1.1.1.1'
p4342
sVbmc
p4343
S'37.4.3.5.1.5.2.4.1.2.1'
p4344
sVkhs
p4345
S'60.4.6'
p4346
sVbmf
p4347
S'63.1.1.3.2.1.1.1.1'
p4348
sVbmg
p4349
S'63.1.3.1.2.2.6.2.3.32.1'
p4350
sVbmd
p4351
S'63.1.1.3.2.3.1.4'
p4352
sVbme
p4353
S'63.1.3.5.1.2.4.1.2.2.1.4'
p4354
sVala
p4355
S'63.1.3.1.6.1.2.2.2'
p4356
sVbmk
p4357
S'37.4.3.5.1.5.3.1.2.2.1.4'
p4358
sVbmh
p4359
S'60.22.1.5.2'
p4360
sVbml
p4361
S'63.1.3.1.2.2.6.2.3.49.1'
p4362
sVbmm
p4363
S'37.4.5.2.2.5'
p4364
sVbmr
p4365
S'112.1.2'
p4366
sVbms
p4367
S'67.9.2.1.2'
p4368
sVbmp
p4369
S'60.13.1.5.2'
p4370
sVbmq
p4371
S'63.1.3.5.2.2.1.1.1'
p4372
sVbmw
p4373
S'63.1.3.1.2.2.6.2.1.50.1'
p4374
sVbmt
p4375
S'38.3.2.1'
p4376
sVbmu
p4377
S'60.13.2.3.10'
p4378
sVbmz
p4379
S'60.35.2'
p4380
sVgwa
p4381
S'63.1.3.4.2.5.5.2'
p4382
sVbmx
p4383
S'60.22.1.2.2'
p4384
sVyzk
p4385
S'151.2.3.3.3.38'
p4386
sVsow
p4387
S'53.3.6'
p4388
sVdks
p4389
S'67.3.3.3.1.1.4'
p4390
sVeip
p4391
S'60.24.1.2'
p4392
sVhds
p4393
S'137.51'
p4394
sVeit
p4395
S'52.1.2.2'
p4396
sVbss
p4397
S'63.1.3.1.2.2.6.2.1.38.1'
p4398
sVeiv
p4399
S'75.3.1'
p4400
sVygs
p4401
S'137.134'
p4402
sVgwb
p4403
S'63.1.3.1.2.2.3.2.5'
p4404
sVfau
p4405
S'122.4.4.1'
p4406
sVkjj
p4407
S'79.1.3.1'
p4408
sVpcd
p4409
S'46.8.2.2.2.1.1.2.1.1.4'
p4410
sVhdn
p4411
S'30.1'
p4412
sVero
p4413
S'151.2.4.6.1'
p4414
sVirn
p4415
S'126.28'
p4416
sVmqc
p4417
S'37.4.3.4.4.1'
p4418
sVmqb
p4419
S'1.2.1.1.5.9'
p4420
sVmqe
p4421
S'60.22.1.2.5'
p4422
sVinb
p4423
S'123.2.1.1.1'
p4424
sVmqf
p4425
S'12.2'
p4426
sVmqi
p4427
S'37.4.3.1.11'
p4428
sVmqh
p4429
S'83.1.1.2.2.46'
p4430
sVmqj
p4431
S'37.4.18.4.5.2'
p4432
sVmql
p4433
S'63.1.3.5.2.2.1.3.2.3'
p4434
sVmqo
p4435
S'104.1.1.4'
p4436
sVmqn
p4437
S'37.4.2.1.2.1.1.2.1'
p4438
sVnso
p4439
S'63.1.3.1.2.2.6.1.13.15.2'
p4440
sVmqp
p4441
S'37.4.3.4.3.1'
p4442
sVmqs
p4443
S'104.1.4.1'
p4444
sVmqr
p4445
S'48.2.3.11'
p4446
sVmqu
p4447
S'67.3.3.1.1.3'
p4448
sVmqt
p4449
S'33.1.5.4.1.1.5'
p4450
sVmqw
p4451
S'60.22.1.2.8'
p4452
sVmqv
p4453
S'60.22.1.2.7'
p4454
sVmqy
p4455
S'37.4.3.3.19'
p4456
sVmqx
p4457
S'37.4.18.4.1.1'
p4458
sVmqz
p4459
S'37.4.3.5.1.5.2.2.2.3.4'
p4460
sVkjl
p4461
S'151.2.7.2.1.2.1.4'
p4462
sVquk
p4463
S'123.2.1.1.3'
p4464
sVpap
p4465
S'133.9.1'
p4466
sVpas
p4467
S'122.4.3.7'
p4468
sVpat
p4469
S'37.4.3.5.1.1.1.1.1.10'
p4470
sVpau
p4471
S'37.4.15.1'
p4472
sVpav
p4473
S'81.2.2'
p4474
sVpax
p4475
S'8839'
p4476
sVpay
p4477
S'85.2.1'
p4478
sVpaz
p4479
S'126.52'
p4480
sVvut
p4481
S'63.1.3.1.2.1.3.3.2.1'
p4482
sVkhe
p4483
S'60.28.1.3.1'
p4484
sVsuv
p4485
S'151.2.1.4.4'
p4486
sVpab
p4487
S'142.2.2.1.1'
p4488
sVpac
p4489
S'33.1.2.2.2.2.3'
p4490
sVpad
p4491
S'25.3'
p4492
sVnnq
p4493
S'63.1.3.1.2.2.6.1.11.11.1'
p4494
sVgsg
p4495
S'137.40'
p4496
sVeri
p4497
S'60.22.3.5.2'
p4498
sVtkr
p4499
S'79.1.5.2.3.2'
p4500
sVkqs
p4501
S'63.1.1.3.2.1.2.2'
p4502
sVmiy
p4503
S'83.1.1.2.2.6'
p4504
sVsee
p4505
S'50.1.1.1.3'
p4506
sVxkk
p4507
S'33.1.2.1.3.1'
p4508
sVnsa
p4509
S'151.2.5.4.2.3'
p4510
sVoia
p4511
S'60.37.2.1'
p4512
sVgru
p4513
S'1.6.2.1.2.1.1.1'
p4514
sVtix
p4515
S'106.1.2'
p4516
sVeth
p4517
S'137.34'
p4518
sVsmn
p4519
S'92.5.1.2'
p4520
sVgrs
p4521
S'71.1'
p4522
sVyhl
p4523
S'151.2.3.3.3.29'
p4524
sVtlo
p4525
S'63.2.4.1.1.1'
p4526
sVorw
p4527
S'81.2.1'
p4528
sVgrq
p4529
S'127.3.1.4'
p4530
sVyhd
p4531
S'1.6.1.2.1.12'
p4532
sVccr
p4533
S'23.1.1.1'
p4534
sVccm
p4535
S'133.11.3'
p4536
sVxkb
p4537
S'63.1.3.1.4.3.1.10'
p4538
sVcco
p4539
S'83.2.1.1.2'
p4540
sVeyo
p4541
S'67.3.3.2.1.2.3.1'
p4542
sVcch
p4543
S'63.1.3.1.9.1.3.1'
p4544
sVccj
p4545
S'63.1.1.2.3.2.1'
p4546
sVcce
p4547
S'63.1.3.1.2.2.6.1.13.1.1'
p4548
sVoke
p4549
S'63.1.3.1.5.4.3'
p4550
sVccg
p4551
S'63.1.3.1.2.1.1.5'
p4552
sVcca
p4553
S'87.1.4'
p4554
sVccc
p4555
S'142.2.4.1'
p4556
sVgdq
p4557
S'1.6.2.2.4'
p4558
sVgdr
p4559
S'6.4'
p4560
sVgds
p4561
S'137.42'
p4562
sVgdu
p4563
S'1.2.1.1.8.5'
p4564
sVxnz
p4565
S'67.3.1.3.1.1'
p4566
sVsxg
p4567
S'151.2.4.4.4'
p4568
sVgdb
p4569
S'141.1.2.3'
p4570
sVgdd
p4571
S'37.4.3.5.1.5.2.2.2.1.2.1.2'
p4572
sVgde
p4573
S'1.2.1.1.8.4'
p4574
sVgdf
p4575
S'1.2.1.1.4.2.1.4'
p4576
sVgdh
p4577
S'29.4.1'
p4578
sVgdi
p4579
S'63.1.3.5.1.2.4.1.2.2.1.3'
p4580
sVgry
p4581
S'63.1.3.3.5.2.3.1'
p4582
sVgdm
p4583
S'8827'
p4584
sVgdn
p4585
S'60.32.1.9'
p4586
sVgdo
p4587
S'79.1.1.1.6'
p4588
sVwli
p4589
S'104.1.2.5'
p4590
sVgrg
p4591
S'60.13.1.2.2'
p4592
sVpoy
p4593
S'63.1.3.1.2.2.6.1.4.11.1'
p4594
sVkqa
p4595
S'60.22.4.1.4.2'
p4596
sVmfs
p4597
S'137.81'
p4598
sVgss
p4599
S'137.43'
p4600
sVkqg
p4601
S'63.1.3.5.2.2.2.1.2'
p4602
sVmxa
p4603
S'83.1.1.2.2.24'
p4604
sVfvr
p4605
S'67.4.2'
p4606
sVgrc
p4607
S'46.6.1.3'
p4608
sVami
p4609
S'37.3.1.1'
p4610
sVmoz
p4611
S'1.2.2.2.2.1'
p4612
sVamk
p4613
S'37.4.3.5.2.2.2.7.1.1'
p4614
sVmox
p4615
S'37.4.3.5.1.5.3.1.2.3.7'
p4616
sVamm
p4617
S'21.1'
p4618
sVaml
p4619
S'33.1.5.1.4'
p4620
sVamo
p4621
S'63.1.3.1.9.1.1.1'
p4622
sVamn
p4623
S'53.3.1'
p4624
sVmos
p4625
S'63.1.3.5.2.2.1.3.4.2.2'
p4626
sVpor
p4627
S'46.8.2.2.2.1.2.3.3.4'
p4628
sVmoq
p4629
S'60.26.1'
p4630
sVmop
p4631
S'15.2.4.1.2'
p4632
sVmow
p4633
S'63.1.3.1.2.2.6.2.3.6.2'
p4634
sVpsg
p4635
S'137.95'
p4636
sVamg
p4637
S'29.17.1.1'
p4638
sVamf
p4639
S'1.5.2.4'
p4640
sVamy
p4641
S'29.2.1.2.1'
p4642
sVxkr
p4643
S'62.1.2'
p4644
sVmoi
p4645
S'63.1.3.5.1.1.9.4.2.1'
p4646
sVmom
p4647
S'8832'
p4648
sVmoc
p4649
S'26.2.2'
p4650
sVpss
p4651
S'37.4.3.5.1.5.2.2.2.8.2.2.3'
p4652
sVmoa
p4653
S'63.3.1.2.2.2.1'
p4654
sVamr
p4655
S'34.1'
p4656
sVamu
p4657
S'83.1.1.1.1'
p4658
sVpsw
p4659
S'37.4.3.5.1.2.1.5.3.4.10'
p4660
sVamw
p4661
S'1.6.1.1.2.2'
p4662
sVamv
p4663
S'37.4.3.4.1.1'
p4664
sVwbw
p4665
S'37.4.3.5.2.2.2.7.1.11'
p4666
sVkqh
p4667
S'67.3.3.2.1.2.3.2'
p4668
sVtic
p4669
S'63.2.1.2.3.2'
p4670
sVwbq
p4671
S'141.3.2.5'
p4672
sVkqo
p4673
S'63.1.3.3.5.4.2.1'
p4674
sVxai
p4675
S'8817'
p4676
sVgjn
p4677
S'63.1.3.4.2.5.6.2.1.7'
p4678
sVhaf
p4679
S'137.46'
p4680
sVwbe
p4681
S'122.4.3.9'
p4682
sVwbb
p4683
S'37.4.3.5.2.2.2.7.2.2'
p4684
sVwba
p4685
S'126.74'
p4686
sVngc
p4687
S'63.1.3.1.2.2.6.2.3.30.1'
p4688
sVwbm
p4689
S'33.1.5.4.1.3.3.3'
p4690
sVwbj
p4691
S'1.3.4.2'
p4692
sVwbh
p4693
S'63.1.3.1.2.2.6.1.9.20.1'
p4694
sVwbi
p4695
S'63.1.3.1.2.2.6.1.4.7.1'
p4696
sVtvy
p4697
S'133.13.10'
p4698
sVkxs
p4699
S'43.1.2.3'
p4700
sVtvu
p4701
S'63.1.3.1.2.2.6.2.1.9.1'
p4702
sVtvt
p4703
S'151.2.5.1.2.12'
p4704
sVtvw
p4705
S'37.4.2.2.1.1.7'
p4706
sVanv
p4707
S'63.1.3.1.2.2.4.1'
p4708
sVtvs
p4709
S'63.1.3.1.2.2.6.1.2.19.2'
p4710
sVtvm
p4711
S'37.4.3.2.2.2.3'
p4712
sVtvl
p4713
S'37.4.3.5.1.2.1.1.1.2.1.2.2.8'
p4714
sValt
p4715
S'80.3.2'
p4716
sVtvn
p4717
S'151.2.3.1.2.7'
p4718
sVonp
p4719
S'151.2.1.4.5'
p4720
sVtvk
p4721
S'37.4.3.5.1.2.1.5.3.2.4'
p4722
sVhak
p4723
S'151.1.2'
p4724
sVtve
p4725
S'37.4.3.12.2.4.2.1'
p4726
sVeze
p4727
S'63.1.3.1.3.2.4.3.2.1.2.2'
p4728
sVanu
p4729
S'67.3.3.3.2.1.1.1'
p4730
sVxop
p4731
S'127.2.4.1'
p4732
sVeza
p4733
S'63.1.3.1.7.2.1'
p4734
sVkmg
p4735
S'60.13.2.1.3'
p4736
sVkmf
p4737
S'60.22.1.4.1'
p4738
sVkme
p4739
S'63.1.3.1.2.2.6.2.1.21.1'
p4740
sVjgk
p4741
S'63.1.3.1.2.2.3.2.6'
p4742
sVkmb
p4743
S'63.1.3.1.2.2.6.1.5.7.1'
p4744
sVkma
p4745
S'63.1.3.5.2.2.1.3.1.2'
p4746
sVgvm
p4747
S'63.1.3.1.9.2.2.2'
p4748
sVmfw
p4749
S'60.32.4.2'
p4750
sVgvc
p4751
S'68.2.2'
p4752
sVjgb
p4753
S'63.1.3.1.2.2.6.1.1.20.1'
p4754
sVgva
p4755
S'3.4'
p4756
sVddw
p4757
S'37.4.3.2.1.3'
p4758
sVjge
p4759
S'82.1.2'
p4760
sVgve
p4761
S'37.4.3.5.1.5.2.1.1.1.1.3'
p4762
sVkmw
p4763
S'63.1.3.1.2.2.6.1.1.25.1'
p4764
sVkmv
p4765
S'133.6.4'
p4766
sVddi
p4767
S'37.4.3.5.1.5.3.1.2.3.2'
p4768
sVkmt
p4769
S'71.2'
p4770
sVkms
p4771
S'52.3.5'
p4772
sVkmq
p4773
S'67.6.2.3'
p4774
sVkmp
p4775
S'63.1.3.5.1.1.6.1.3.2.2.1.1'
p4776
sVgvs
p4777
S'37.4.3.5.1.5.3.1.2.5.1'
p4778
sVkvl
p4779
S'151.2.2.1.6'
p4780
sVdde
p4781
S'63.1.3.1.2.2.6.1.5.2.1'
p4782
sVkmx
p4783
S'60.20.7'
p4784
sVtdk
p4785
S'1.2.4.1.4.1.2'
p4786
sVnmw
p4787
S'37.4.3.5.1.5.3.2.2.3.1'
p4788
sVnmt
p4789
S'37.4.3.5.1.2.1.3.1.4.2.5'
p4790
sVnmu
p4791
S'138.1.1'
p4792
sVtdo
p4793
S'63.1.3.5.1.1.6.3.1.6'
p4794
sVnms
p4795
S'37.4.3.5.1.2.1.5.2.3.2'
p4796
sVnmp
p4797
S'29.9.5'
p4798
sVnmq
p4799
S'63.1.3.1.2.2.6.1.13.12.2'
p4800
sVtdc
p4801
S'101.1.2.3'
p4802
sVtda
p4803
S'35.16.1'
p4804
sVnmz
p4805
S'63.1.3.5.2.2.1.3.5.1'
p4806
sVicl
p4807
S'137.54'
p4808
sVnmx
p4809
S'20.1.1.1'
p4810
sVkvk
p4811
S'137.70'
p4812
sVnmf
p4813
S'151.2.5.4.6.3'
p4814
sVnmg
p4815
S'63.1.3.1.2.2.6.2.1.41.1'
p4816
sVnmd
p4817
S'63.1.3.1.2.2.6.2.2.16.1'
p4818
sVtdx
p4819
S'37.4.5.2.2.9'
p4820
sVnmb
p4821
S'37.4.3.5.1.2.1.5.2.2.8'
p4822
sVsqu
p4823
S'135.1.7'
p4824
sVynu
p4825
S'68.3.6'
p4826
sVnmn
p4827
S'84.2.1'
p4828
sVnml
p4829
S'63.1.3.1.2.2.7.1'
p4830
sVsqt
p4831
S'1.6.2.2.6'
p4832
sVnmk
p4833
S'37.4.3.5.1.2.1.5.3.1.5'
p4834
sVnmh
p4835
S'151.2.6.5'
p4836
sVnmi
p4837
S'1.2.4.1.2.1.1.13'
p4838
sVsrb
p4839
S'33.2.2.2.2.2.2'
p4840
sVsrc
p4841
S'46.8.2.3.2.3'
p4842
sVsra
p4843
S'60.22.1.2.14'
p4844
sVsrf
p4845
S'37.4.3.5.1.5.2.1.1.1.1.5'
p4846
sVbbi
p4847
S'63.1.3.1.2.2.6.2.1.6.1'
p4848
sVace
p4849
S'37.4.10.1.1.1'
p4850
sVacd
p4851
S'63.1.3.4.2.5.6.2.1.5'
p4852
sVsrk
p4853
S'37.4.13.2.3.2.3.4'
p4854
sVyaz
p4855
S'63.1.3.1.3.2.4.3.1.2.1'
p4856
sVals
p4857
S'46.1.2.3'
p4858
sVsro
p4859
S'46.8.2.3.2.1'
p4860
sVacm
p4861
S'1.6.1.2.1.18'
p4862
sVdzn
p4863
S'63.1.3.1.2.2.6.2.3.33.1'
p4864
sVacs
p4865
S'62.1.1'
p4866
sVsrs
p4867
S'14.1.2.13'
p4868
sVacq
p4869
S'1.6.1.2.1.31'
p4870
sVxnb
p4871
S'37.9.1'
p4872
sVacw
p4873
S'1.6.1.2.1.11'
p4874
sVsrw
p4875
S'37.4.3.12.2.4.1.2'
p4876
sVacu
p4877
S'70.1.1'
p4878
sVyat
p4879
S'63.1.3.1.2.2.6.2.1.13.1'
p4880
sVxnh
p4881
S'33.1.8.2'
p4882
sVacy
p4883
S'1.6.1.2.1.5'
p4884
sVsry
p4885
S'37.4.3.5.1.5.2.4.2.4'
p4886
sVzps
p4887
S'83.1.2.2.2.9'
p4888
sVyyu
p4889
S'52.6.3.10'
p4890
sVbje
p4891
S'38.3.1.1'
p4892
sVyav
p4893
S'63.1.3.1.2.2.6.2.1.52.3'
p4894
sVbjc
p4895
S'60.32.7.2'
p4896
sVsqm
p4897
S'63.1.3.5.1.2.2.1'
p4898
sVbja
p4899
S'63.1.3.1.2.2.6.2.3.12.1'
p4900
sVmdk
p4901
S'67.2.1.3.5'
p4902
sVbjo
p4903
S'63.1.3.5.1.2.1.1.1.5.1'
p4904
sVidd
p4905
S'63.1.3.1.4.3.1.3'
p4906
sVbjl
p4907
S'37.4.3.5.1.5.1.3.2'
p4908
sVbjk
p4909
S'37.4.3.5.1.5.1.2.2.1'
p4910
sVbbb
p4911
S'60.32.3.1.1'
p4912
sVbjw
p4913
S'63.1.3.3.2.1.1'
p4914
sVbju
p4915
S'63.1.3.1.2.2.10.3'
p4916
sVbjt
p4917
S'63.1.1.2.1.1.1'
p4918
sVbba
p4919
S'63.1.3.5.2.1.1'
p4920
sVzpv
p4921
S'83.1.2.2.2.6'
p4922
sVbjz
p4923
S'60.15.1.2.2.1.1.1'
p4924
sVlob
p4925
S'63.1.3.5.2.4.1'
p4926
sVloa
p4927
S'104.1.1.3'
p4928
sVlof
p4929
S'63.2.1.2.1.1.2.1'
p4930
sVlog
p4931
S'67.2.1.4.1.4'
p4932
sVher
p4933
S'63.1.3.1.2.2.6.1.12.1.1'
p4934
sVloj
p4935
S'37.4.3.5.1.1.1.3.3'
p4936
sVloh
p4937
S'67.3.1.4.2.2.1.1.2'
p4938
sVmdm
p4939
S'63.1.3.5.1.2.4.1.2.1.1.2'
p4940
sVlon
p4941
S'63.1.3.1.2.2.6.1.11.5.1'
p4942
sVetr
p4943
S'60.4.4'
p4944
sVlol
p4945
S'63.1.3.1.2.2.6.2.3.25.1'
p4946
sVhed
p4947
S'1.2.3.1'
p4948
sVlos
p4949
S'37.4.3.5.1.1.1.1.2.1'
p4950
sVlop
p4951
S'63.1.3.1.9.2.4.2'
p4952
sVheg
p4953
S'37.4.3.12.1.3'
p4954
sVlov
p4955
S'151.2.3.3.4.10'
p4956
sVhea
p4957
S'38.1.4.2'
p4958
sVheb
p4959
S'1.6.1.2.2.1'
p4960
sVlou
p4961
S'133.6.5'
p4962
sVloz
p4963
S'63.1.3.1.2.2.6.1.7.9.1'
p4964
sVhem
p4965
S'63.1.3.1.2.2.6.1.8.5.1'
p4966
sVheh
p4967
S'63.1.3.1.2.2.6.1.4.2.1'
p4968
sVpae
p4969
S'63.1.3.1.2.2.6.2.3.28.1'
p4970
sVvsl
p4971
S'137.133'
p4972
sVnkf
p4973
S'151.2.5.4.7.2'
p4974
sVyak
p4975
S'131.1.4'
p4976
sVyaj
p4977
S'63.1.3.5.1.2.1.1.2.1'
p4978
sVjun
p4979
S'33.2.2.1.1'
p4980
sVbph
p4981
S'79.1.1.1.4'
p4982
sVjum
p4983
S'67.3.3.3.2.1.4.2.1'
p4984
sVrjg
p4985
S'37.4.3.3.24'
p4986
sVjus
p4987
S'137.67'
p4988
sVcwb
p4989
S'63.1.3.1.2.2.6.1.11.6.2'
p4990
sVagl
p4991
S'60.10.1'
p4992
sVyad
p4993
S'116.1'
p4994
sVjuy
p4995
S'33.2.2.2.2.2.1'
p4996
sVyag
p4997
S'126.79'
p4998
sVbyh
p4999
S'151.2.7.2.1.1.1'
p5000
sVxbx
p5001
S'81.1.2'
p5002
sVyaf
p5003
S'63.1.3.1.2.2.6.1.5.13.4'
p5004
sVzpd
p5005
S'83.1.2.2.2.40'
p5006
sVaed
p5007
S'137.7'
p5008
sVzpf
p5009
S'83.1.2.2.2.32'
p5010
sVxbw
p5011
S'8819'
p5012
sVnkh
p5013
S'151.2.5.4.1.3'
p5014
sVuig
p5015
S'80.2.4'
p5016
sVngt
p5017
S'33.1.2.2.2.3.2'
p5018
sVcbj
p5019
S'63.1.3.1.4.3.1.1'
p5020
sVsvb
p5021
S'37.4.3.5.1.5.2.4.2.7'
p5022
sVcbh
p5023
S'887'
p5024
sVcbi
p5025
S'45.2.1'
p5026
sVcbn
p5027
S'33.1.7.1'
p5028
sVnxx
p5029
S'145.3.2.1'
p5030
sVuis
p5031
S'16.1.3'
p5032
sVbma
p5033
S'63.1.3.1.2.2.3.2.9'
p5034
sVcbv
p5035
S'115.1.1'
p5036
sVcbt
p5037
S'69.1'
p5038
sVuiv
p5039
S'63.1.3.1.2.2.9.12'
p5040
sVsva
p5041
S'82.2.1'
p5042
sVnki
p5043
S'151.2.5.4.8.6'
p5044
sVyon
p5045
S'60.28.2.1.5'
p5046
sVyom
p5047
S'63.1.3.1.2.2.6.1.5.6.4'
p5048
sVkix
p5049
S'151.2.5.1.2.2'
p5050
sVyok
p5051
S'132.1'
p5052
sVhmz
p5053
S'38.1.2.22'
p5054
sVpsc
p5055
S'137.96'
p5056
sVlgm
p5057
S'63.1.3.1.2.2.6.1.1.27.1'
p5058
sVpys
p5059
S'137.94'
p5060
sVyif
p5061
S'151.2.3.3.3.1'
p5062
sVigg
p5063
S'127.3.5.3'
p5064
sVige
p5065
S'63.1.3.1.6.1.2.2.4'
p5066
sVfss
p5067
S'137.35'
p5068
sVigb
p5069
S'63.1.3.1.10.1.1'
p5070
sVigo
p5071
S'60.22.1.1.4'
p5072
sVmpq
p5073
S'95.3.1'
p5074
sVigl
p5075
S'63.1.3.1.4.3.2.1'
p5076
sVyor
p5077
S'63.1.3.1.4.3.1.13'
p5078
sVhwo
p5079
S'1.2.1.1.1.1.3'
p5080
sVhmp
p5081
S'38.1.2.15'
p5082
sVorg
p5083
S'63.1.3.1.3.2.4.3.2.1.1.1'
p5084
sVajz
p5085
S'151.2.5.4.3.1'
p5086
sVhwa
p5087
S'63.1.3.3.2.1.2'
p5088
sVxbe
p5089
S'29.10.1'
p5090
sVlgz
p5091
S'63.1.3.1.2.2.6.2.3.34.1'
p5092
sVyab
p5093
S'115.2.2'
p5094
sVcpn
p5095
S'63.1.3.4.2.5.6.2.2.2'
p5096
sVcpo
p5097
S'63.3.2.2.1'
p5098
sVcpa
p5099
S'83.2.1.1.7'
p5100
sVsmx
p5101
S'63.1.3.1.2.2.6.1.8.12.2'
p5102
sVcpg
p5103
S'46.6.1.1'
p5104
sVcpx
p5105
S'151.1.10'
p5106
sVpei
p5107
S'83.2.1.2.1'
p5108
sVwgo
p5109
S'37.4.3.5.2.2.2.4.9'
p5110
sVhmi
p5111
S'38.1.2.14'
p5112
sValn
p5113
S'46.1.1.1'
p5114
sVmny
p5115
S'63.1.3.1.2.2.6.1.11.1.8'
p5116
sVmnz
p5117
S'60.37.4.4'
p5118
sValm
p5119
S'37.4.3.5.1.2.1.5.3.5.2'
p5120
sVsci
p5121
S'133.11.14'
p5122
sValk
p5123
S'33.1.2.1.1.1'
p5124
sVpth
p5125
S'11.2'
p5126
sVsce
p5127
S'43.1.2.2'
p5128
sVmnq
p5129
S'33.1.1.2.2.3'
p5130
sVscg
p5131
S'37.4.8.2'
p5132
sVale
p5133
S'10.1.1'
p5134
sValc
p5135
S'94.1'
p5136
sVmnv
p5137
S'37.4.3.5.1.2.1.1.1.2.1.2.3.7'
p5138
sVmnw
p5139
S'33.1.3.1'
p5140
sVmnh
p5141
S'63.1.3.5.1.2.1.1.1.5.4'
p5142
sVhmd
p5143
S'38.1.2.11'
p5144
sVqvo
p5145
S'123.2.1.1.4'
p5146
sVmnl
p5147
S'37.4.3.5.1.2.1.5.3.5.18'
p5148
sVmnm
p5149
S'60.32.1.6'
p5150
sValx
p5151
S'52.6.1.3'
p5152
sVmna
p5153
S'37.4.3.5.1.5.2.2.2.4.1'
p5154
sVscw
p5155
S'1.2.4.1.4.2.5'
p5156
sValu
p5157
S'37.4.3.5.1.2.3.2.1.3.4'
p5158
sVscq
p5159
S'33.1.2.4.2.1.2'
p5160
sVptr
p5161
S'37.4.3.5.1.2.1.5.3.5.13'
p5162
sVzmj
p5163
S'29.2.1.1.2'
p5164
sVsmo
p5165
S'37.4.3.5.1.2.1.1.1.2.1.2.5.1'
p5166
sVzmh
p5167
S'2.1.2'
p5168
sVwmx
p5169
S'8.2.2.3.1.1'
p5170
sVzmn
p5171
S'63.1.3.1.2.2.6.2.2.8.1'
p5172
sVzmo
p5173
S'67.3.1.1.1.3'
p5174
sVzml
p5175
S'29.2.2.1.2'
p5176
sVzmm
p5177
S'29.2.1.1.3'
p5178
sVwms
p5179
S'60.28.1.2.5'
p5180
sVzma
p5181
S'29.2.1.2.3'
p5182
sVwmw
p5183
S'63.1.3.1.2.2.6.1.4.18.1'
p5184
sVzmg
p5185
S'29.2.1.1.7'
p5186
sVzmd
p5187
S'29.2.1.1.1'
p5188
sVzme
p5189
S'29.5.2'
p5190
sVgla
p5191
S'46.4.1.2.1'
p5192
sVzmx
p5193
S'63.1.3.1.2.2.6.2.3.45.1'
p5194
sVzmy
p5195
S'29.2.1.1.6'
p5196
sVwmo
p5197
S'52.1.2.5'
p5198
sVwmm
p5199
S'37.4.18.4.3.3'
p5200
sVbvz
p5201
S'149.1.1'
p5202
sVzmr
p5203
S'29.2.1.2.4'
p5204
sVwmb
p5205
S'29.14.3'
p5206
sVzmp
p5207
S'63.1.3.1.2.2.6.2.2.39.1'
p5208
sVhmc
p5209
S'38.1.2.6'
p5210
sVzmw
p5211
S'63.1.3.1.2.2.6.1.1.18.1'
p5212
sVzmt
p5213
S'29.2.1.1.4'
p5214
sVwmd
p5215
S'59.1.3'
p5216
sVmpg
p5217
S'1.2.3.2'
p5218
sVfax
p5219
S'46.8.2.2.2.1.2.3.3.1'
p5220
sVmpe
p5221
S'67.3.1.4.1.1.1'
p5222
sVmpb
p5223
S'29.2.2.2.1'
p5224
sVmpc
p5225
S'29.6.7.1'
p5226
sVmpa
p5227
S'63.1.3.1.2.2.6.1.10.7.1'
p5228
sVfar
p5229
S'37.4.3.5.1.2.3.2.1.2.3'
p5230
sVmpo
p5231
S'37.4.3.5.1.5.2.2.2.8.2.2.4'
p5232
sVmpl
p5233
S'37.4.3.5.1.5.2.1.1.3.1'
p5234
sVmpm
p5235
S'83.1.1.2.2.50'
p5236
sVmpk
p5237
S'1.2.1.2.2.1'
p5238
sVmph
p5239
S'29.17.3.4'
p5240
sVost
p5241
S'63.1.3.1.2.2.9.15'
p5242
sVmpv
p5243
S'60.13.1.1.5'
p5244
sVgou
p5245
S'1.2.1.1.7.3'
p5246
sVmpt
p5247
S'60.28.2.2.3'
p5248
sVfai
p5249
S'60.28.2.2.2'
p5250
sVfan
p5251
S'63.1.3.1.2.2.6.2.1.28.1'
p5252
sVmps
p5253
S'60.34.1'
p5254
sVmpp
p5255
S'60.13.2.1.6'
p5256
sVfam
p5257
S'63.1.3.1.2.1.2.1'
p5258
sVkwz
p5259
S'102.2.1'
p5260
sVhan
p5261
S'63.1.3.1.2.2.6.1.6.45.1'
p5262
sVfaa
p5263
S'60.38.1'
p5264
sVfaf
p5265
S'37.4.3.5.1.2.3.2.2.2'
p5266
sVfag
p5267
S'60.13.1.1.1'
p5268
sVmpx
p5269
S'37.4.3.5.1.5.3.2.2.2.1'
p5270
sVmpy
p5271
S'37.4.3.5.1.2.1.3.1.4.2.3'
p5272
sVwsa
p5273
S'134.1'
p5274
sVhya
p5275
S'1.2.1.1.3.2'
p5276
sVpre
p5277
S'133.13.11'
p5278
sVpbv
p5279
S'33.1.5.1.3'
p5280
sVhye
p5281
S'46.2.1'
p5282
sVpbr
p5283
S'63.1.3.1.2.2.6.1.4.4.1'
p5284
sVwsi
p5285
S'37.4.3.5.1.2.1.5.3.5.24'
p5286
sVdsb
p5287
S'46.3.2.3.3.1'
p5288
sVwsk
p5289
S'60.22.4.2.2'
p5290
sVysl
p5291
S'137.136'
p5292
sVpby
p5293
S'126.54'
p5294
sVsmb
p5295
S'60.1.2.8'
p5296
sVnkd
p5297
S'151.2.5.4.8.1'
p5298
sVngo
p5299
S'63.1.3.1.2.2.6.1.10.5.1'
p5300
sVwsu
p5301
S'8856'
p5302
sVpbb
p5303
S'87.2.1'
p5304
sVpbl
p5305
S'63.1.3.5.1.1.9.1.7'
p5306
sVpbo
p5307
S'63.1.1.2.1.3.3'
p5308
sVpbn
p5309
S'63.1.3.5.1.1.6.3.2.2'
p5310
sVpbi
p5311
S'1.2.1.1.4.2.3.1'
p5312
sVpbh
p5313
S'73.4.1'
p5314
sVqvy
p5315
S'151.2.4.5.7'
p5316
sVteh
p5317
S'109.1'
p5318
sVtei
p5319
S'52.1.2.4'
p5320
sVnby
p5321
S'53.1.3'
p5322
sVtek
p5323
S'63.1.3.1.2.2.6.2.2.34.1'
p5324
sVtel
p5325
S'141.3.2.4'
p5326
sVtem
p5327
S'63.1.1.3.2.3.2.1'
p5328
sVten
p5329
S'68.3.3'
p5330
sVteo
p5331
S'67.3.3.1.2.2.1.1'
p5332
sVnbs
p5333
S'137.86'
p5334
sVtea
p5335
S'33.1.1.3.5'
p5336
sVnbq
p5337
S'60.37.1.1.6'
p5338
sVtec
p5339
S'67.3.3.2.1.2.3.6'
p5340
sVted
p5341
S'63.1.3.3.5.2.2.3'
p5342
sVtee
p5343
S'56.1.1'
p5344
sVtef
p5345
S'33.1.4.2.2'
p5346
sVteg
p5347
S'63.1.3.1.2.2.6.2.2.30.1'
p5348
sVnbk
p5349
S'60.22.1.2.9'
p5350
sVtey
p5351
S'67.5.5'
p5352
sVnbi
p5353
S'151.2.5.4.1.4'
p5354
sVnbh
p5355
S'1.2.4.1.2.1.1.12'
p5356
sVnbo
p5357
S'63.1.3.1.3.2.4.3.1.2.3'
p5358
sVnbn
p5359
S'37.4.3.13.1'
p5360
sVnbm
p5361
S'63.1.3.5.1.2.4.1.2.2.2.2'
p5362
sVllb
p5363
S'63.1.3.1.2.2.6.1.11.1.2'
p5364
sVtep
p5365
S'96.2.2.2'
p5366
sVnbb
p5367
S'63.1.3.1.2.2.2.2'
p5368
sVnba
p5369
S'63.1.3.1.2.2.6.1.7.2.2'
p5370
sVtes
p5371
S'37.4.6.5'
p5372
sVtet
p5373
S'37.4.3.12.1.11'
p5374
sVlla
p5375
S'63.1.3.5.1.1.9.4.3.2'
p5376
sVtev
p5377
S'37.4.3.11.2'
p5378
sVnbd
p5379
S'63.1.3.1.2.2.6.1.1.5.1'
p5380
sVsug
p5381
S'60.28.2.2.6'
p5382
sVxow
p5383
S'60.22.1.7.6.1'
p5384
sVsue
p5385
S'60.15.1.1.1'
p5386
sVxor
p5387
S'8825'
p5388
sVsub
p5389
S'63.1.3.1.2.2.6.1.5.14.1'
p5390
sVabf
p5391
S'37.4.13.4.3.1'
p5392
sVabg
p5393
S'60.22.2.1'
p5394
sVabh
p5395
S'1.6.1.2.1.30'
p5396
sVsun
p5397
S'37.4.19.2'
p5398
sVmmz
p5399
S'63.1.3.1.2.2.6.2.3.4.1'
p5400
sVabl
p5401
S'37.4.7.3'
p5402
sVsuj
p5403
S'63.1.3.1.2.2.6.1.6.44.1'
p5404
sVsui
p5405
S'60.14.2.1'
p5406
sVabo
p5407
S'63.1.3.1.2.2.9.1'
p5408
sVsuw
p5409
S'63.1.3.1.2.2.6.1.3.7.1'
p5410
sVxog
p5411
S'63.1.3.1.2.2.6.1.6.38.2'
p5412
sVxod
p5413
S'60.31.3.1.1'
p5414
sVsut
p5415
S'83.2.2.2.1'
p5416
sVsus
p5417
S'63.3.2.1.1.2.1'
p5418
sVsur
p5419
S'1.2.4.1.3.1.1.5'
p5420
sVabv
p5421
S'1.6.1.2.1.3'
p5422
sVasz
p5423
S'37.4.3.5.2.2.2.4.1'
p5424
sVxon
p5425
S'63.1.3.5.2.2.1.3.3.2'
p5426
sVaby
p5427
S'60.32.7.1'
p5428
sVdse
p5429
S'137.112'
p5430
sVxom
p5431
S'67.6.2.2'
p5432
sVpuf
p5433
S'37.4.13.2.4.1.3.6'
p5434
sVsuy
p5435
S'62.2.4'
p5436
sVxoi
p5437
S'127.3.5.5'
p5438
sVkzr
p5439
S'63.1.3.5.1.1.7.4.1.1.1'
p5440
sVggt
p5441
S'37.4.3.5.1.5.2.2.1.2.1'
p5442
sVggw
p5443
S'60.14.1.2'
p5444
sVsby
p5445
S'63.1.3.1.2.2.6.1.9.13.1'
p5446
sVkzv
p5447
S'60.28.2.3.1'
p5448
sVkzw
p5449
S'126.31'
p5450
sVtrr
p5451
S'126.64'
p5452
sVkzu
p5453
S'37.4.3.5.1.5.2.3.1.1'
p5454
sVkzz
p5455
S'104.2.1'
p5456
sVkzy
p5457
S'63.1.3.1.2.2.6.1.1.23.1'
p5458
sVtwa
p5459
S'135.1.8'
p5460
sVgge
p5461
S'29.6.1.3'
p5462
sVkzc
p5463
S'63.1.3.5.2.3.1'
p5464
sVkza
p5465
S'63.1.3.5.2.5.1.2'
p5466
sVkzf
p5467
S'37.4.2.2.1.1.2'
p5468
sVggb
p5469
S'63.1.3.3.5.1.3'
p5470
sVkzj
p5471
S'37.4.13.4.1.2.2'
p5472
sVggl
p5473
S'60.22.3.7.2'
p5474
sVggo
p5475
S'141.3.1.1.2'
p5476
sVkzi
p5477
S'37.4.13.2.3.1.1'
p5478
sVkzn
p5479
S'63.1.3.1.2.2.6.1.11.1.1'
p5480
sVkzo
p5481
S'63.1.3.1.2.2.6.2.2.13.1'
p5482
sVggk
p5483
S'29.6.5.1'
p5484
sVkzm
p5485
S'60.31.3.3.2'
p5486
sVasc
p5487
S'60.2.1.1'
p5488
sVmkn
p5489
S'133.11.9'
p5490
sVsje
p5491
S'92.5.3.1.3'
p5492
sVsbc
p5493
S'37.4.3.5.1.1.1.1.1.4'
p5494
sVfwe
p5495
S'63.1.3.1.2.2.6.1.7.17.1'
p5496
sVmvk
p5497
S'136.6'
p5498
sVasa
p5499
S'63.1.3.1.2.2.6.1.4.13.1'
p5500
sVcaz
p5501
S'126.14'
p5502
sVsfb
p5503
S'137.38'
p5504
sVpyn
p5505
S'95.2.1'
p5506
sVmmi
p5507
S'60.22.1.7.6.3'
p5508
sVpuy
p5509
S'117.1.3'
p5510
sVvif
p5511
S'63.1.3.1.2.2.6.1.5.3.1'
p5512
sVvig
p5513
S'63.1.3.5.2.9.1'
p5514
sVjra
p5515
S'37.4.10.1.3.1'
p5516
sVvie
p5517
S'33.1.9.5.1'
p5518
sVasd
p5519
S'60.22.3.2.1'
p5520
sVvin
p5521
S'63.1.3.1.2.2.6.1.6.47.1'
p5522
sVvil
p5523
S'126.72'
p5524
sVlkc
p5525
S'151.2.3.3.1.4'
p5526
sVput
p5527
S'37.4.13.2.3.1.4'
p5528
sVjrt
p5529
S'1.2.4.1.3.1.1.2'
p5530
sVviv
p5531
S'37.4.3.5.1.5.3.1.2.3.4'
p5532
sVbqh
p5533
S'151.2.4.2.1'
p5534
sVrkb
p5535
S'126.55'
p5536
sVsbk
p5537
S'63.1.3.1.2.2.6.1.9.24.1'
p5538
sVklr
p5539
S'151.2.7.2.2.2.4'
p5540
sVsbh
p5541
S'37.4.3.5.1.1.1.1.3.7'
p5542
sVwkl
p5543
S'141.4.1'
p5544
sVeya
p5545
S'14.1'
p5546
sVpuw
p5547
S'37.4.3.5.1.2.1.3.1.4.2.7'
p5548
sVtwf
p5549
S'106.1.1'
p5550
sVpup
p5551
S'60.22.3.3.4'
p5552
sVtwn
p5553
S'63.1.3.1.2.1.3.1.1.2'
p5554
sVtwo
p5555
S'63.1.3.1.2.2.6.1.13.15.3'
p5556
sVtwl
p5557
S'63.1.3.1.2.2.6.1.13.9.1'
p5558
sVavt
p5559
S'52.6.3.1'
p5560
sVtwp
p5561
S'37.4.3.5.1.1.1.1.1.3'
p5562
sVtww
p5563
S'147.3.2'
p5564
sVtwx
p5565
S'63.1.3.1.2.2.6.1.13.10.2'
p5566
sVtwy
p5567
S'37.4.5.2.3.2'
p5568
sVyva
p5569
S'104.3.2'
p5570
sVvec
p5571
S'46.8.2.2.2.1.1.1.6'
p5572
sVzia
p5573
S'60.15.1.1.2'
p5574
sVnkw
p5575
S'63.1.3.1.2.2.6.2.3.59.1'
p5576
sVwkb
p5577
S'141.4.2'
p5578
sVkjq
p5579
S'98.2'
p5580
sVvmj
p5581
S'83.1.1.2.2.16'
p5582
sVmvs
p5583
S'126.41'
p5584
sVrmk
p5585
S'127.3.5.6'
p5586
sVatb
p5587
S'151.2.3.1.1.6'
p5588
sVnbc
p5589
S'151.2.5.1.2.1'
p5590
sVgsl
p5591
S'63.1.1.2.1.2.2.1.1.2'
p5592
sVgqn
p5593
S'142.2.3.3.1'
p5594
sVdez
p5595
S'63.1.3.1.2.2.6.2.3.14.1'
p5596
sVyix
p5597
S'151.2.3.3.3.3'
p5598
sVkla
p5599
S'126.33'
p5600
sVklb
p5601
S'121.1.2'
p5602
sVklc
p5603
S'63.1.3.5.1.1.6.2.1'
p5604
sVdep
p5605
S'107.1.2'
p5606
sVklm
p5607
S'60.22.3.3.3'
p5608
sVder
p5609
S'151.2.5.1.1.1'
p5610
sVata
p5611
S'124.1.2'
p5612
sVklh
p5613
S'60.13.1.3.4'
p5614
sVkli
p5615
S'37.4.18.4.5.1'
p5616
sVgqa
p5617
S'1.2.1.1.1.1.2'
p5618
sVklt
p5619
S'60.13.1.3.2'
p5620
sVklu
p5621
S'63.1.3.3.5.3.1'
p5622
sVklv
p5623
S'37.4.3.5.1.2.1.5.3.4.6'
p5624
sVklw
p5625
S'37.4.2.2.1.1.5'
p5626
sVklp
p5627
S'60.1.2.4'
p5628
sVdem
p5629
S'60.7.1'
p5630
sVrmh
p5631
S'8835'
p5632
sVisr
p5633
S'137.60'
p5634
sVdec
p5635
S'63.2.4.1.3.1'
p5636
sVklx
p5637
S'37.4.3.5.1.5.3.1.2.3.5'
p5638
sVdee
p5639
S'63.1.3.3.5.1.2'
p5640
sVdeg
p5641
S'63.1.3.1.5.1.1'
p5642
sVhhr
p5643
S'63.1.1.2.1.2.2.1.2.2'
p5644
sVabb
p5645
S'63.1.3.1.2.2.6.2.1.7.1'
p5646
sVhhy
p5647
S'60.16.2.3'
p5648
sVdui
p5649
S'60.22.3.7.1'
p5650
sVdoq
p5651
S'137.30'
p5652
sVhhi
p5653
S'60.16.2.2'
p5654
sVati
p5655
S'63.1.3.4.2.2.1'
p5656
sVcsl
p5657
S'137.23'
p5658
sVcso
p5659
S'83.2.1.1.9'
p5660
sVcsn
p5661
S'137.24'
p5662
sVcsi
p5663
S'27.2.2.1'
p5664
sVoyy
p5665
S'37.4.3.5.1.5.3.1.3.3'
p5666
sVguk
p5667
S'67.6.1.1'
p5668
sVcse
p5669
S'137.28'
p5670
sVcsd
p5671
S'137.21'
p5672
sVcsg
p5673
S'137.22'
p5674
sVcsf
p5675
S'137.27'
p5676
sVcsa
p5677
S'83.2.1.1.1'
p5678
sVcsc
p5679
S'137.19'
p5680
sVcsb
p5681
S'46.3.2.3.2.1'
p5682
sVatu
p5683
S'67.3.3.3.1.2.2'
p5684
sVcsz
p5685
S'129.1'
p5686
sVcst
p5687
S'27.1.1'
p5688
sVcsq
p5689
S'137.26'
p5690
sVoyb
p5691
S'33.1.2.1.5.4.2'
p5692
sVcss
p5693
S'27.1.2'
p5694
sVcsr
p5695
S'137.25'
p5696
sVbkf
p5697
S'63.1.3.1.2.2.6.1.1.19.1'
p5698
sVbkg
p5699
S'63.1.3.5.1.2.4.1.2.2.3.1'
p5700
sVset
p5701
S'145.3.2.2'
p5702
sVmvf
p5703
S'43.1.3.1.2.2'
p5704
sVbkc
p5705
S'63.1.3.5.1.2.4.1.2.2.1.1'
p5706
sVbkl
p5707
S'48.2.3.2'
p5708
sVbkn
p5709
S'37.4.13.1.1.1'
p5710
sVmvg
p5711
S'83.1.1.2.2.51'
p5712
sVbkh
p5713
S'63.1.3.1.2.2.6.2.1.8.1'
p5714
sVbki
p5715
S'37.4.3.5.1.2.1.5.3.3.2.1.1'
p5716
sVbkj
p5717
S'63.1.3.1.2.2.6.2.3.43.1'
p5718
sVyxu
p5719
S'29.10.4'
p5720
sVbkt
p5721
S'63.1.3.1.2.2.6.2.3.11.1'
p5722
sVbkv
p5723
S'63.1.3.1.3.1.2'
p5724
sVbkw
p5725
S'63.1.3.1.2.2.6.2.1.48.1'
p5726
sVbkp
p5727
S'63.1.3.1.2.2.6.2.3.48.1'
p5728
sVbkr
p5729
S'37.4.5.4.2.1'
p5730
sVcjn
p5731
S'147.9.1'
p5732
sVbky
p5733
S'63.1.3.1.3.1.4'
p5734
sVbkz
p5735
S'37.4.2.1.2.1.1.1.2'
p5736
sVxte
p5737
S'60.24.2.1'
p5738
sVlhn
p5739
S'37.4.13.1.1.3'
p5740
sVlhi
p5741
S'151.2.3.3.1.6'
p5742
sVglr
p5743
S'63.1.3.3.5.4.1.2'
p5744
sVlht
p5745
S'37.4.3.5.1.2.1.5.3.2.15'
p5746
sVatx
p5747
S'126.6'
p5748
sVegl
p5749
S'46.8.2.2.2.1.1.1.1'
p5750
sVega
p5751
S'63.1.3.4.2.5.2.1'
p5752
sVtrq
p5753
S'83.1.1.2.3.3'
p5754
sVlrt
p5755
S'133.11.10'
p5756
sVxtd
p5757
S'83.1.1.2.2.13'
p5758
sVitl
p5759
S'113.2.1'
p5760
sVitk
p5761
S'46.8.2.2.1.3'
p5762
sVanj
p5763
S'127.3.2.2'
p5764
sVite
p5765
S'81.1.1'
p5766
sVnbe
p5767
S'151.2.5.1.2.3'
p5768
sVita
p5769
S'46.8.2.2.1.2'
p5770
sVuvh
p5771
S'60.13.1.1.11'
p5772
sVffm
p5773
S'63.1.1.2.5.1.1.3.2'
p5774
sVitz
p5775
S'15.2.4.1.1'
p5776
sVitx
p5777
S'48.2.3.6'
p5778
sVcby
p5779
S'888'
p5780
sVitr
p5781
S'21.3'
p5782
sVuve
p5783
S'37.4.3.5.1.2.1.1.1.2.1.2.3.3'
p5784
sVkrc
p5785
S'80.5.2.1'
p5786
sVgmz
p5787
S'63.1.3.1.7.2.7'
p5788
sVwrd
p5789
S'8855'
p5790
sVswo
p5791
S'8846'
p5792
sVwra
p5793
S'8.2.2.1.1'
p5794
sVwrn
p5795
S'63.2.1.1.2'
p5796
sVkcy
p5797
S'67.10.1'
p5798
sVpcp
p5799
S'95.1.1'
p5800
sVnhb
p5801
S'63.3.1.2.2.1.1'
p5802
sVwrk
p5803
S'29.16.1'
p5804
sVpcj
p5805
S'33.2.2.2.2.1.1'
p5806
sVpch
p5807
S'141.3.1.1.10'
p5808
sVwru
p5809
S'37.4.2.1.2.1.2.2.4'
p5810
sVwrr
p5811
S'29.6.13.2'
p5812
sVwrs
p5813
S'53.3.8'
p5814
sVwrp
p5815
S'37.4.3.5.2.2.2.6.1'
p5816
sVpcb
p5817
S'33.1.2.4.1.1'
p5818
sVwrz
p5819
S'29.6.12.1'
p5820
sVxtb
p5821
S'83.1.1.2.2.9'
p5822
sVwrx
p5823
S'37.4.3.3.30'
p5824
sVpce
p5825
S'33.1.5.4.2.2.1'
p5826
sVceg
p5827
S'148.2'
p5828
sVrwa
p5829
S'8.2.2.3.2.1'
p5830
sVoks
p5831
S'63.1.3.1.11.1'
p5832
sVcea
p5833
S'135.3.2.1'
p5834
sVokv
p5835
S'60.15.1.2.2.2.3'
p5836
sVuhn
p5837
S'60.6.1'
p5838
sVmfz
p5839
S'67.3.3.3.2.1.4.2.2'
p5840
sVrwk
p5841
S'63.1.3.1.2.2.6.1.2.1.2'
p5842
sVrwm
p5843
S'63.1.3.1.2.2.6.1.1.24.1'
p5844
sVrwo
p5845
S'60.13.1.2.6'
p5846
sVcko
p5847
S'63.1.3.4.2.5.6.1.2.1.1'
p5848
sVbxz
p5849
S'60.32.5.2'
p5850
sVces
p5851
S'46.3.2.3.1.1'
p5852
sVokd
p5853
S'63.1.2.2.3.1.2'
p5854
sVcjs
p5855
S'80.3.6'
p5856
sVoki
p5857
S'67.3.3.2.1.3.1'
p5858
sVaka
p5859
S'63.1.3.4.2.5.6.1.1.2'
p5860
sVxta
p5861
S'83.1.1.2.2.2'
p5862
sVdii
p5863
S'63.1.3.1.2.2.6.2.1.3.1'
p5864
sVynl
p5865
S'60.22.3.5.7'
p5866
sVkff
p5867
S'141.3.1.2.2.1.1'
p5868
sVtro
p5869
S'151.2.6.6'
p5870
sVynk
p5871
S'10.2.2.2'
p5872
sVyne
p5873
S'151.2.3.3.1.12'
p5874
sVyng
p5875
S'63.1.3.5.1.2.4.1.2.2.4.3'
p5876
sVyna
p5877
S'151.2.3.3.2.1'
p5878
sVxth
p5879
S'8862'
p5880
sVife
p5881
S'63.1.3.1.4.3.1.6'
p5882
sViff
p5883
S'37.4.3.5.1.2.2.2.1'
p5884
sVbxp
p5885
S'63.1.3.1.2.2.6.2.1.26.2'
p5886
sVifm
p5887
S'63.1.3.1.2.2.6.2.2.35.1'
p5888
sVynq
p5889
S'63.1.3.5.1.1.6.3.2.4'
p5890
sVbjg
p5891
S'63.1.1.1.1'
p5892
sVyns
p5893
S'63.1.3.1.2.2.6.2.2.40.2'
p5894
sVbxr
p5895
S'43.1.3.1.1.3'
p5896
sVbxu
p5897
S'43.1.3.1.1.1'
p5898
sVnhr
p5899
S'102.1.1.4.1'
p5900
sVarj
p5901
S'68.2.1'
p5902
sVeto
p5903
S'63.1.3.1.2.2.6.2.1.24.1'
p5904
sVgum
p5905
S'87.1.5'
p5906
sVpea
p5907
S'133.11.2'
p5908
sVnac
p5909
S'60.5.3.3'
p5910
sVtxj
p5911
S'67.9.2.1.6'
p5912
sVizh
p5913
S'92.1.5'
p5914
sVizz
p5915
S'63.1.3.1.7.2.6'
p5916
sViou
p5917
S'60.13.1.4.2'
p5918
sVguv
p5919
S'63.1.3.5.1.1.2.1'
p5920
sVsbr
p5921
S'37.4.13.2.3.2.3.3'
p5922
sVsbs
p5923
S'63.1.3.1.2.2.6.1.7.19.1'
p5924
sVsbp
p5925
S'63.1.3.1.2.2.6.1.4.1.1'
p5926
sVpuo
p5927
S'33.1.5.2.4.3'
p5928
sVmmy
p5929
S'1.2.2.2.1.1.6'
p5930
sVmmx
p5931
S'37.4.3.5.1.5.1.2.2.3'
p5932
sVpuj
p5933
S'37.4.13.2.5.1'
p5934
sVast
p5935
S'46.8.2.2.2.1.2.3.1.1'
p5936
sVpud
p5937
S'37.4.13.2.4.1.3.5'
p5938
sVmmt
p5939
S'37.4.3.5.1.5.2.2.1.1.4'
p5940
sVmmw
p5941
S'37.4.3.5.1.2.1.1.1.2.1.2.3.2'
p5942
sVasx
p5943
S'60.13.1.5.7'
p5944
sVmmq
p5945
S'60.22.4.3.2.2'
p5946
sVpua
p5947
S'36.2'
p5948
sVpuc
p5949
S'37.4.13.3.4'
p5950
sVmmm
p5951
S'37.4.3.5.1.2.1.5.3.3.1.2'
p5952
sVmml
p5953
S'33.1.5.4.1.1.4'
p5954
sVmmo
p5955
S'37.4.3.5.1.5.2.1.4.1.1.1'
p5956
sVekr
p5957
S'63.1.3.1.6.2.2'
p5958
sVpux
p5959
S'8.2.2.2.1'
p5960
sVsbg
p5961
S'104.2.4'
p5962
sVsbd
p5963
S'63.3.1.1.4.3'
p5964
sVsbe
p5965
S'37.4.3.5.1.5.3.1.3.4'
p5966
sVmme
p5967
S'37.4.3.5.1.2.1.5.3.4.4'
p5968
sVasj
p5969
S'63.1.3.1.2.2.1.9'
p5970
sVmmg
p5971
S'37.4.3.5.1.2.1.5.3.2.3'
p5972
sVmmf
p5973
S'1.2.4.1.4.2.3'
p5974
sVaso
p5975
S'60.17.1.2.3'
p5976
sVsbo
p5977
S'33.1.1.3.2'
p5978
sVpur
p5979
S'76.3'
p5980
sVmmb
p5981
S'12.1'
p5982
sVwlx
p5983
S'63.1.3.5.2.2.1.3.4.2.4'
p5984
sVwly
p5985
S'151.2.7.2.2.1.21'
p5986
sVdiw
p5987
S'67.3.3.3.1.1.2'
p5988
sVkoo
p5989
S'63.1.3.1.2.2.6.1.6.8.1'
p5990
sVkkt
p5991
S'151.2.7.2.2.2.5'
p5992
sVwlr
p5993
S'37.4.3.5.1.2.1.5.3.5.23'
p5994
sVwls
p5995
S'37.4.3.5.1.2.1.1.1.2.1.2.1.2'
p5996
sVwlv
p5997
S'7.2.3'
p5998
sVwlw
p5999
S'60.37.1.1.7'
p6000
sVxtl
p6001
S'83.1.1.2.2.45'
p6002
sVwlk
p6003
S'14.1.3.1.4'
p6004
sVwln
p6005
S'46.8.2.2.2.1.1.2.1.1.5'
p6006
sVxii
p6007
S'102.1.2.2.3'
p6008
sVwla
p6009
S'147.3.3'
p6010
sVbxf
p6011
S'37.4.3.5.1.5.1.2.3.1'
p6012
sVwle
p6013
S'1.6.2.1.2.2.2.3'
p6014
sVwlg
p6015
S'29.6.6.2'
p6016
sVndt
p6017
S'63.1.3.5.1.2.4.1.1.4'
p6018
sVwme
p6019
S'151.2.7.2.2.2.9'
p6020
sVcku
p6021
S'55.1.1.1.1.2'
p6022
sVslc
p6023
S'139.1'
p6024
sVnag
p6025
S'133.3.1'
p6026
sVjup
p6027
S'115.2.1'
p6028
sVauc
p6029
S'126.73'
p6030
sVkoh
p6031
S'63.1.3.1.2.2.6.2.3.21.1'
p6032
sVgpn
p6033
S'126.63'
p6034
sVkol
p6035
S'126.34'
p6036
sVjet
p6037
S'53.3.5'
p6038
sVjeu
p6039
S'1.2.2.2.1.1.3'
p6040
sVphw
p6041
S'151.2.7.2.2.1.17'
p6042
sVcoa
p6043
S'133.11.8'
p6044
sVkoe
p6045
S'67.3.1.4.2.2.2.1'
p6046
sVkod
p6047
S'37.4.3.10.2.3'
p6048
sVkof
p6049
S'1.2.4.1.2.1.1.10'
p6050
sVkoy
p6051
S'14.1.2.11'
p6052
sVkox
p6053
S'8810'
p6054
sVbum
p6055
S'63.1.3.1.2.2.6.2.1.27.1'
p6056
sVkoz
p6057
S'60.22.4.2.1'
p6058
sVjeg
p6059
S'33.1.2.1.5.4.1'
p6060
sVjee
p6061
S'151.2.7.2.2.2.3'
p6062
sVkoq
p6063
S'63.1.3.1.2.2.6.2.2.10.1'
p6064
sVkop
p6065
S'60.22.3.5.6'
p6066
sVkos
p6067
S'37.4.3.5.1.2.1.3.1.2.1'
p6068
sVjei
p6069
S'20.1.3.1'
p6070
sVkou
p6071
S'63.1.3.5.1.1.7.1.6'
p6072
sVjel
p6073
S'20.4.2'
p6074
sVomu
p6075
S'126.50'
p6076
sVncz
p6077
S'126.46'
p6078
sVtfn
p6079
S'14.1.2.16'
p6080
sVsnj
p6081
S'133.12.2'
p6082
sVxkd
p6083
S'37.4.13.2.4.1.1.6'
p6084
sVpmx
p6085
S'151.2.5.4.1.7'
p6086
sVncr
p6087
S'63.1.3.1.2.2.1.7'
p6088
sVncs
p6089
S'137.89'
p6090
sVncu
p6091
S'63.1.3.4.2.5.6.2.1.1'
p6092
sVsik
p6093
S'73.2.1'
p6094
sVeli
p6095
S'63.2.4.1.2.1'
p6096
sVnck
p6097
S'29.6.1.4'
p6098
sVncm
p6099
S'20.1.1.3'
p6100
sVncn
p6101
S'37.4.3.5.1.1.1.3.4'
p6102
sVnco
p6103
S'16.2.5'
p6104
sVnca
p6105
S'60.13.1.2.1'
p6106
sVncb
p6107
S'33.1.4.4.1'
p6108
sVncc
p6109
S'37.4.3.5.1.1.1.1.1.11'
p6110
sVncd
p6111
S'151.2.7.2.2.1.16'
p6112
sVmwv
p6113
S'37.4.14.2'
p6114
sVncf
p6115
S'37.4.3.5.1.5.1.2.4.2'
p6116
sVncg
p6117
S'64.1.2'
p6118
sVaae
p6119
S'46.1.2.1'
p6120
sVaad
p6121
S'147.2.1'
p6122
sVaag
p6123
S'52.6.1.2'
p6124
sVkor
p6125
S'110.2'
p6126
sVdto
p6127
S'63.1.3.2.15'
p6128
sVsta
p6129
S'107.11.1'
p6130
sVaac
p6131
S'60.14.1.1'
p6132
sVbfc
p6133
S'151.2.4.1.3'
p6134
sVstm
p6135
S'60.28.2.2.5'
p6136
sVaao
p6137
S'1.6.1.2.1.1'
p6138
sVsth
p6139
S'35.12.1'
p6140
sVaah
p6141
S'52.1.1.1'
p6142
sVaak
p6143
S'60.1.2.2'
p6144
sVstk
p6145
S'20.1.2.1'
p6146
sVstt
p6147
S'33.1.2.1.4.1'
p6148
sVstu
p6149
S'33.1.5.4.1.1.6'
p6150
sVstv
p6151
S'1.6.2.1.2.2.2.2'
p6152
sVstw
p6153
S'37.4.3.5.1.2.1.3.1.4.2.8'
p6154
sVkow
p6155
S'63.1.3.5.1.1.6.3.2.3'
p6156
sVaas
p6157
S'1.3.4.1'
p6158
sVdts
p6159
S'63.1.3.2.17'
p6160
sVdtr
p6161
S'37.4.13.4.1.2.7'
p6162
sVaax
p6163
S'60.28.1.2.3'
p6164
sVdtu
p6165
S'63.1.3.2.12'
p6166
sVdtt
p6167
S'63.1.3.2.18'
p6168
sVbhj
p6169
S'151.2.7.2.2.2.1'
p6170
sVbhm
p6171
S'1.6.2.2.1'
p6172
sVbhl
p6173
S'60.28.2.2.1'
p6174
sVbha
p6175
S'141.5.3'
p6176
sVbhc
p6177
S'37.4.3.5.2.2.2.4.2'
p6178
sVslj
p6179
S'73.5.1'
p6180
sVtfo
p6181
S'149.8'
p6182
sVbhg
p6183
S'60.15.1.2.1.1'
p6184
sVbhf
p6185
S'126.48'
p6186
sVbhy
p6187
S'63.1.3.1.2.2.6.1.1.10.1'
p6188
sVbhq
p6189
S'37.4.2.1.2.2.2.3'
p6190
sVbhp
p6191
S'37.4.3.3.3'
p6192
sVbhs
p6193
S'1.2.1.1.7.1'
p6194
sVbhr
p6195
S'37.4.5.2.2.3'
p6196
sVbhw
p6197
S'37.4.3.5.2.2.2.1.1'
p6198
sVbhv
p6199
S'37.4.13.2.4.1.1.1'
p6200
sVlid
p6201
S'37.4.3.5.1.1.1.1.3.6'
p6202
sVlie
p6203
S'63.1.3.1.2.2.6.2.3.3.2'
p6204
sVxuu
p6205
S'102.1.1.3.1'
p6206
sVabt
p6207
S'147.4.1'
p6208
sVlia
p6209
S'63.1.1.3.1.2'
p6210
sVlib
p6211
S'37.4.3.5.1.1.1.1.3.4'
p6212
sVccl
p6213
S'133.15.1'
p6214
sVlil
p6215
S'135.2.1'
p6216
sVhgw
p6217
S'37.4.3.5.1.5.3.1.2.2.2.2'
p6218
sVlin
p6219
S'63.1.3.1.2.2.6.2.3.1.2'
p6220
sVlio
p6221
S'37.4.3.5.1.5.2.3.2.5'
p6222
sVlih
p6223
S'37.4.3.5.1.5.1.2.4.1'
p6224
sVlij
p6225
S'46.8.2.2.2.1.1.1.2'
p6226
sVlik
p6227
S'63.1.3.1.2.2.6.1.1.21.1'
p6228
sVlit
p6229
S'46.3.1.1.3'
p6230
sVliu
p6231
S'67.3.4.1.1.1'
p6232
sVliv
p6233
S'92.1.7'
p6234
sVhgm
p6235
S'102.1.2.1.1'
p6236
sVlip
p6237
S'63.1.3.4.2.5.3.2.1'
p6238
sVlir
p6239
S'107.3.1.1'
p6240
sVlis
p6241
S'151.2.3.3.1.16'
p6242
sVcks
p6243
S'133.6.11'
p6244
sVliy
p6245
S'63.1.3.5.1.2.1.1.1.1.1'
p6246
sVliz
p6247
S'63.1.3.1.2.2.6.2.3.7.1'
p6248
sVkac
p6249
S'151.2.5.3.1.1'
p6250
sVabu
p6251
S'63.1.3.4.2.5.6.4.1'
p6252
sVkaa
p6253
S'80.5.1.1'
p6254
sVypb
p6255
S'151.2.3.3.3.30'
p6256
sVkag
p6257
S'37.4.13.1.1.2'
p6258
sVkaf
p6259
S'151.2.3.3.2.6'
p6260
sVkae
p6261
S'37.10.1'
p6262
sVgec
p6263
S'63.1.3.3.5.2.3.3'
p6264
sVrhp
p6265
S'52.2.3.3'
p6266
sVkai
p6267
S'1.2.4.1.2.1.2.1'
p6268
sVkah
p6269
S'8821'
p6270
sVvnk
p6271
S'37.4.3.5.1.4.2.1'
p6272
sVkam
p6273
S'63.1.3.1.2.2.6.1.2.12.1'
p6274
sVkal
p6275
S'10.2.1.3'
p6276
sVbew
p6277
S'133.11.1'
p6278
sVkap
p6279
S'79.1.7.1.1'
p6280
sVmwz
p6281
S'63.1.3.1.2.2.10.4'
p6282
sVvnp
p6283
S'37.4.3.5.1.2.1.5.3.5.22'
p6284
sVkaz
p6285
S'80.5.1.2'
p6286
sVkay
p6287
S'76.2'
p6288
sVkax
p6289
S'104.1.2.3'
p6290
sVbzw
p6291
S'63.1.3.1.9.2.1.1'
p6292
sVtpf
p6293
S'37.4.3.5.1.5.2.3.2.10'
p6294
sVbzu
p6295
S'145.1.1'
p6296
sVbzs
p6297
S'137.16'
p6298
sVtpa
p6299
S'37.4.3.5.1.5.3.1.2.2.2.5'
p6300
sVbzp
p6301
S'60.31.3.2.2'
p6302
sVtpm
p6303
S'63.1.3.5.2.2.2.4.3.8'
p6304
sVbzz
p6305
S'63.1.3.1.2.2.9.9'
p6306
sVbzy
p6307
S'63.1.3.1.3.1.6'
p6308
sVbzg
p6309
S'37.11.1.1'
p6310
sVtpv
p6311
S'37.4.3.5.1.2.1.3.1.4.2.10'
p6312
sVtpu
p6313
S'33.1.2.1.1.4'
p6314
sVtpt
p6315
S'56.1.3'
p6316
sVbzc
p6317
S'37.4.5.2.2.8'
p6318
sVbzb
p6319
S'37.4.2.1.1.2.1'
p6320
sVtpp
p6321
S'56.1.2'
p6322
sVbzo
p6323
S'63.1.3.1.2.2.6.2.3.50.1'
p6324
sVers
p6325
S'151.2.4.3.1'
p6326
sVbzm
p6327
S'63.1.3.1.2.2.6.2.3.2.1'
p6328
sVbzl
p6329
S'37.4.2.3.1.1'
p6330
sVtpy
p6331
S'126.67'
p6332
sVbzh
p6333
S'37.4.3.5.1.5.2.1.4.1.1.2'
p6334
sVojv
p6335
S'37.4.3.5.1.2.1.1.1.2.1.2.2.5'
p6336
sVcde
p6337
S'141.3.2.1'
p6338
sVycp
p6339
S'151.2.3.3.4.4'
p6340
sVugo
p6341
S'151.2.3.3.5.2'
p6342
sVugn
p6343
S'137.129'
p6344
sVrtm
p6345
S'37.4.3.5.1.2.1.1.2.1.1'
p6346
sVevh
p6347
S'63.1.3.1.5.4.5'
p6348
sVcdo
p6349
S'151.1.7'
p6350
sVugy
p6351
S'137.131'
p6352
sVkbs
p6353
S'63.1.3.1.2.2.6.2.2.48.1'
p6354
sVmtu
p6355
S'83.1.1.2.2.47'
p6356
sVcdr
p6357
S'63.1.3.1.9.2.6.5'
p6358
sVtft
p6359
S'104.1.3.1'
p6360
sVdbf
p6361
S'122.4.1.1'
p6362
sVcht
p6363
S'105.1'
p6364
sVymq
p6365
S'151.2.3.3.3.15'
p6366
sVymp
p6367
S'37.4.3.5.1.5.2.1.4.1.2.2'
p6368
sVbfa
p6369
S'67.3.3.1.1.1'
p6370
sVbfg
p6371
S'37.4.13.2.4.1.1.4'
p6372
sVbfe
p6373
S'48.2.3.3'
p6374
sVbfk
p6375
S'137.13'
p6376
sVymx
p6377
S'151.2.3.3.3.14'
p6378
sVbfi
p6379
S'137.17'
p6380
sVbfh
p6381
S'20.1.2.2'
p6382
sVbfl
p6383
S'63.1.3.5.1.2.1.1.1.4.1'
p6384
sVbfs
p6385
S'151.2.4.1.4'
p6386
sVxel
p6387
S'67.3.1.1.1.2'
p6388
sVymc
p6389
S'151.2.3.3.3.16'
p6390
sVymb
p6391
S'52.1.2.6'
p6392
sVbfw
p6393
S'33.2.2.2.1.2.1'
p6394
sVymd
p6395
S'151.2.3.3.4.12'
p6396
sVymg
p6397
S'63.1.3.1.2.2.6.2.3.11.4'
p6398
sVtcw
p6399
S'56.2.6'
p6400
sVymi
p6401
S'151.2.3.3.3.13'
p6402
sVymh
p6403
S'151.2.3.3.1.19'
p6404
sVymk
p6405
S'63.1.3.1.2.2.6.1.4.17.1'
p6406
sVtfr
p6407
S'85.1.2'
p6408
sVyml
p6409
S'37.4.3.5.1.5.3.1.2.3.3'
p6410
sVymo
p6411
S'52.6.1.10'
p6412
sVymn
p6413
S'37.4.3.5.1.5.2.3.2.9'
p6414
sVdtk
p6415
S'63.1.3.2.13'
p6416
sVhir
p6417
S'8815'
p6418
sVhiw
p6419
S'37.4.3.5.1.2.1.5.3.2.10'
p6420
sVhix
p6421
S'73.6.1'
p6422
sVstf
p6423
S'52.7.1'
p6424
sVsmc
p6425
S'60.13.1.3.3'
p6426
sVhia
p6427
S'1.2.1.1.4.1.2'
p6428
sVhib
p6429
S'105.2'
p6430
sVhig
p6431
S'1.2.1.1.3.3'
p6432
sVhih
p6433
S'60.22.1.7.6.4'
p6434
sVhij
p6435
S'63.1.3.1.2.2.6.2.1.1.1'
p6436
sVatw
p6437
S'91.2'
p6438
sVhio
p6439
S'102.1.1.2.2'
p6440
sVcrs
p6441
S'133.6.10'
p6442
sVcrq
p6443
S'7.1.2'
p6444
sVcrv
p6445
S'33.1.4.2.1'
p6446
sVnzu
p6447
S'63.1.3.1.2.2.6.2.2.33.2'
p6448
sVcrt
p6449
S'7.1.1'
p6450
sVtco
p6451
S'151.2.3.1.2.6'
p6452
sVcrz
p6453
S'117.2.1'
p6454
sVkbo
p6455
S'67.2.1.4.1.3'
p6456
sVtcl
p6457
S'151.2.5.3.1.3'
p6458
sVcrc
p6459
S'37.4.3.5.1.2.1.5.3.2.16'
p6460
sVsfw
p6461
S'63.1.3.4.2.5.6.1.2.1.5'
p6462
sVcra
p6463
S'1.5.1.2.1.2.1.1'
p6464
sVcrf
p6465
S'87.1.3'
p6466
sVcrg
p6467
S'35.8.1'
p6468
sVktu
p6469
S'133.10.2'
p6470
sVcrh
p6471
S'80.4.1'
p6472
sVdur
p6473
S'63.1.3.5.1.1.6.1.1.1'
p6474
sVstn
p6475
S'37.4.3.5.1.2.3.2.2.4'
p6476
sVtck
p6477
S'63.1.3.1.2.2.6.2.2.29.1'
p6478
sVsew
p6479
S'37.4.3.5.1.5.3.1.2.4.7'
p6480
sVarq
p6481
S'1.6.1.2.1.2'
p6482
sVseu
p6483
S'37.4.3.5.2.2.2.7.1.9'
p6484
sVars
p6485
S'1.6.1.2.1.20'
p6486
sVmfv
p6487
S'63.1.1.2.1.3.1'
p6488
sVseq
p6489
S'63.1.3.5.2.5.4.2'
p6490
sVsep
p6491
S'63.1.3.5.2.5.5.4'
p6492
sVary
p6493
S'1.6.1.2.1.19'
p6494
sVarz
p6495
S'1.6.1.2.1.8'
p6496
sVxes
p6497
S'60.22.3.2.2'
p6498
sVspk
p6499
S'147.4.11'
p6500
sVass
p6501
S'63.1.3.1.2.2.9.11'
p6502
sVseg
p6503
S'63.1.3.1.2.2.6.1.2.18.1'
p6504
sVsef
p6505
S'63.1.3.5.2.5.4.1'
p6506
sVarb
p6507
S'1.6.1.2.1.28'
p6508
sVsec
p6509
S'135.1.6'
p6510
sVseb
p6511
S'63.1.3.5.2.5.5.3'
p6512
sVsea
p6513
S'33.1.1.3.3'
p6514
sVarg
p6515
S'46.8.2.2.2.2.1.1'
p6516
sVseo
p6517
S'147.7.3.2'
p6518
sVsen
p6519
S'63.1.3.5.2.5.5.2'
p6520
sVged
p6521
S'63.1.3.1.10.1.2'
p6522
sVark
p6523
S'54.1'
p6524
sVsek
p6525
S'14.1.2.14'
p6526
sVsej
p6527
S'60.13.2.1.8'
p6528
sVsei
p6529
S'126.59'
p6530
sVaro
p6531
S'24.2.1'
p6532
sVaau
p6533
S'147.1.1'
p6534
sVzkn
p6535
S'151.2.5.3.2.3'
p6536
sVwoy
p6537
S'8858'
p6538
sVaat
p6539
S'46.1.2.2'
p6540
sVzkd
p6541
S'151.2.5.3.2.2'
p6542
sVwow
p6543
S'37.4.2.1.2.1.1.1.4'
p6544
sVpbg
p6545
S'142.1.2.1.2'
p6546
sVwor
p6547
S'149.10'
p6548
sVwom
p6549
S'63.1.3.5.1.1.6.2.4'
p6550
sVwol
p6551
S'63.1.1.2.5.1.2.1'
p6552
sVwoo
p6553
S'37.4.3.1.10'
p6554
sVwon
p6555
S'63.1.3.1.2.2.6.2.3.18.1'
p6556
sVatr
p6557
S'73.3.2.1'
p6558
sVwok
p6559
S'63.1.3.5.1.1.6.1.3.3.1'
p6560
sVsld
p6561
S'63.1.3.5.2.2.2.4.3.7'
p6562
sVwoe
p6563
S'37.4.3.5.1.2.1.3.1.4.2.13'
p6564
sVwod
p6565
S'60.37.4.5'
p6566
sVwog
p6567
S'147.9.2'
p6568
sVwof
p6569
S'63.1.1.2.5.1.2.2'
p6570
sVwoa
p6571
S'29.2.2.2.2'
p6572
sVwoc
p6573
S'37.4.3.5.1.5.2.4.1.2.6'
p6574
sVwob
p6575
S'63.1.3.3.5.4.4.1'
p6576
sViks
p6577
S'137.58'
p6578
sVwec
p6579
S'63.1.3.3.5.4.1.6'
p6580
sVozm
p6581
S'63.1.3.1.2.2.6.2.1.47.1'
p6582
sVikw
p6583
S'63.1.3.1.7.2.4'
p6584
sVstr
p6585
S'135.1.5'
p6586
sVikt
p6587
S'10.2.1.1'
p6588
sVuuu
p6589
S'33.1.5.4.1.1.8'
p6590
sVikz
p6591
S'63.1.3.1.2.2.6.1.6.11.1'
p6592
sVikx
p6593
S'67.3.2.1.1'
p6594
sVwea
p6595
S'151.2.2.4.4'
p6596
sVfgr
p6597
S'67.2.2.1.3.2'
p6598
sVuur
p6599
S'37.4.3.5.1.2.2.2.3'
p6600
sVuum
p6601
S'80.1'
p6602
sVuun
p6603
S'37.5.1'
p6604
sVike
p6605
S'10.2.1.2'
p6606
sVikk
p6607
S'63.1.3.1.7.2.3'
p6608
sVskq
p6609
S'63.3.2.1.1.1.2.1.1.3'
p6610
sVsht
p6611
S'126.60'
p6612
sViko
p6613
S'63.1.3.1.3.2.4.3.1.1.1'
p6614
sVnzi
p6615
S'63.1.3.4.2.5.6.1.2.2.3'
p6616
sVgmn
p6617
S'63.1.3.5.1.1.6.1.3.2.2.1.2'
p6618
sVhkk
p6619
S'60.15.1.2.2.2.2'
p6620
sVrof
p6621
S'63.1.3.1.2.2.6.1.2.3.1'
p6622
sVadq
p6623
S'63.1.3.4.1.4.1'
p6624
sVjkp
p6625
S'151.2.2.4.2'
p6626
sVsty
p6627
S'80.5.3.4'
p6628
sVpdo
p6629
S'37.4.2.1.2.1.2.1.2'
p6630
sVpdn
p6631
S'37.4.3.5.1.5.2.3.2.3'
p6632
sVduv
p6633
S'122.4.2.1'
p6634
sVgei
p6635
S'37.4.3.5.2.2.2.4.3'
p6636
sVnaw
p6637
S'63.1.3.4.2.5.6.2.1.10'
p6638
sVwei
p6639
S'60.35.4'
p6640
sVpda
p6641
S'60.22.4.1.3.1'
p6642
sVtgr
p6643
S'33.1.2.2.2.2.5'
p6644
sVtgs
p6645
S'37.4.3.5.1.2.1.5.3.2.23'
p6646
sVtgp
p6647
S'37.4.3.5.1.2.1.5.3.5.16'
p6648
sVtgq
p6649
S'37.4.13.2.3.1.6'
p6650
sVtgv
p6651
S'8848'
p6652
sVtgw
p6653
S'63.1.3.5.2.5.6.3'
p6654
sVwlc
p6655
S'63.1.3.1.2.2.6.1.4.20.2'
p6656
sVsky
p6657
S'37.4.3.5.1.2.1.1.1.2.1.2.2.6'
p6658
sVdas
p6659
S'63.1.3.3.5.4.1.1'
p6660
sVtgy
p6661
S'63.1.3.5.1.2.4.2.2.2'
p6662
sVlbs
p6663
S'137.73'
p6664
sVskx
p6665
S'37.4.18.5.1'
p6666
sVtgb
p6667
S'37.4.13.4.1.2.10'
p6668
sVtgc
p6669
S'37.4.3.5.1.5.1.2.1.5'
p6670
sVtga
p6671
S'63.1.3.1.2.2.6.1.2.20.1'
p6672
sVtgd
p6673
S'1.2.4.2.2.2'
p6674
sVtgj
p6675
S'151.2.1.8.7'
p6676
sVrab
p6677
S'151.2.7.2.2.1.4'
p6678
sVgmd
p6679
S'63.1.3.5.1.1.9.1.6'
p6680
sVtgo
p6681
S'37.4.3.5.1.5.3.2.2.3.2'
p6682
sVcvg
p6683
S'151.2.1.4.2'
p6684
sVadf
p6685
S'1.6.1.2.1.6'
p6686
sVswk
p6687
S'63.1.3.1.2.2.6.1.10.13.1'
p6688
sVduk
p6689
S'60.22.3.5.5'
p6690
sVswm
p6691
S'60.22.1.2.13'
p6692
sVswl
p6693
S'137.118'
p6694
sVdun
p6695
S'37.4.5.2.1.1.1'
p6696
sVswn
p6697
S'1.1.1.1.2'
p6698
sVdua
p6699
S'63.1.3.1.2.2.6.2.1.22.1'
p6700
sVxar
p6701
S'60.16.2.4'
p6702
sVduc
p6703
S'60.8.2'
p6704
sVdud
p6705
S'63.1.3.1.9.2.3.4'
p6706
sVxau
p6707
S'48.1.2.1.2'
p6708
sVduf
p6709
S'37.4.3.5.1.2.1.4.3.1.1'
p6710
sVdug
p6711
S'63.1.3.1.2.2.6.1.2.16.2'
p6712
sVswx
p6713
S'25.4'
p6714
sVduz
p6715
S'63.1.3.5.1.1.6.1.2.1'
p6716
sVade
p6717
S'63.1.3.4.2.5.1.1'
p6718
sVxal
p6719
S'43.1.3.2.1'
p6720
sVtrc
p6721
S'83.1.1.2.3.2'
p6722
sVxan
p6723
S'1.3.1.1.1'
p6724
sVxao
p6725
S'33.1.5.2.1.2'
p6726
sVswq
p6727
S'1.2.1.1.8.10'
p6728
sVswp
p6729
S'37.4.3.5.1.5.3.1.3.5'
p6730
sVsws
p6731
S'37.4.3.9.2.2'
p6732
sVswr
p6733
S'104.3.1'
p6734
sVduu
p6735
S'151.2.1.7.2'
p6736
sVsww
p6737
S'37.4.3.5.1.2.1.5.3.2.29'
p6738
sVduw
p6739
S'37.4.5.2.1.2.2'
p6740
sVbox
p6741
S'63.1.3.5.2.2.1.1.2'
p6742
sVnri
p6743
S'151.2.5.4.1.2'
p6744
sVwgi
p6745
S'60.5.4.2'
p6746
sVnrm
p6747
S'37.4.13.2.1.2.1.2.2'
p6748
sVach
p6749
S'67.3.3.3.2.2.3.1.2.1'
p6750
sVgaw
p6751
S'60.22.1.2.10'
p6752
sVnrb
p6753
S'67.3.1.2.1'
p6754
sVnra
p6755
S'63.1.3.1.2.2.6.2.2.7.2'
p6756
sVgat
p6757
S'60.17.2.1'
p6758
sVnrg
p6759
S'37.4.3.5.1.2.1.5.3.5.10'
p6760
sVgar
p6761
S'37.4.3.5.1.5.3.1.2.4.5'
p6762
sVgaq
p6763
S'33.2.2.2.1.1.1'
p6764
sVgap
p6765
S'60.22.1.2.3'
p6766
sVgao
p6767
S'60.22.2.2'
p6768
sVnrz
p6769
S'37.4.3.5.1.5.3.2.1.3.2.2'
p6770
sVgam
p6771
S'60.5.3.1'
p6772
sVnrx
p6773
S'29.13.1'
p6774
sVgak
p6775
S'104.1.2.1'
p6776
sVhca
p6777
S'133.8.1'
p6778
sVgai
p6779
S'127.3.4.1.1'
p6780
sVgah
p6781
S'60.17.1.2.1'
p6782
sVgaf
p6783
S'60.17.1.3.1'
p6784
sVmwe
p6785
S'63.1.3.1.2.2.6.1.11.14.1'
p6786
sVkbg
p6787
S'151.2.6.2'
p6788
sVgab
p6789
S'1.2.2.1.2.2.1'
p6790
sVgaa
p6791
S'63.1.3.4.2.4.2'
p6792
sVfuv
p6793
S'63.1.1.2.5.1.1.1.2'
p6794
sVrav
p6795
S'151.2.7.2.2.1.20'
p6796
sVfut
p6797
S'37.4.3.5.1.2.1.1.1.2.1.2.3.5'
p6798
sVmla
p6799
S'37.4.3.5.1.2.1.5.3.5.7'
p6800
sVmlf
p6801
S'33.1.5.2.2.2.2'
p6802
sVvmv
p6803
S'138.1.2'
p6804
sVfuq
p6805
S'63.1.1.2.5.1.1.1.1'
p6806
sVmlk
p6807
S'63.1.3.1.2.2.6.1.2.14.1'
p6808
sVmlh
p6809
S'60.13.2.1.5'
p6810
sVmli
p6811
S'37.4.18.4.3.4'
p6812
sVmln
p6813
S'37.4.3.5.1.2.3.1.3.3'
p6814
sVmlo
p6815
S'63.1.1.2.1.2.2.2.2'
p6816
sVmll
p6817
S'37.4.3.5.1.2.1.5.3.4.5'
p6818
sVfuy
p6819
S'60.32.2.1.1'
p6820
sVmlr
p6821
S'1.2.1.1.5.16'
p6822
sVekg
p6823
S'60.37.4.3'
p6824
sVfud
p6825
S'37.4.3.5.1.2.1.1.1.2.1.2.3.4'
p6826
sVfue
p6827
S'63.1.1.2.5.1.1.3.1'
p6828
sVmlv
p6829
S'37.4.3.5.1.2.1.5.3.2.22'
p6830
sVmlw
p6831
S'1.2.1.1.5.14'
p6832
sVmlt
p6833
S'1.6.1.2.1.35'
p6834
sVmlu
p6835
S'37.4.3.5.1.2.3.2.1.2.8'
p6836
sVfun
p6837
S'126.27'
p6838
sVmlx
p6839
S'37.4.3.5.1.2.1.5.3.4.9'
p6840
sVfum
p6841
S'63.1.3.1.2.2.11.2.1'
p6842
sVfuj
p6843
S'63.2.1.1.1'
p6844
sViyx
p6845
S'63.1.3.1.2.2.6.2.2.32.4'
p6846
sVfuh
p6847
S'63.1.1.2.5.1.1.1.3'
p6848
sVfui
p6849
S'63.1.1.2.5.1.1.2.2'
p6850
sVsaj
p6851
S'104.1.2.4'
p6852
sVlbg
p6853
S'151.2.3.3.5.1'
p6854
sVamh
p6855
S'1.6.2.1.2.2.1.1'
p6856
sVbot
p6857
S'67.2.2.1.1.2.1'
p6858
sVgel
p6859
S'63.1.3.1.9.2.3.5'
p6860
sVriu
p6861
S'37.4.3.3.26'
p6862
sVmoy
p6863
S'1.5.1.2.2.3.2'
p6864
sVvot
p6865
S'92.1.11'
p6866
sVril
p6867
S'33.1.5.4.2.3.1'
p6868
sVrim
p6869
S'63.1.3.1.2.2.6.1.3.2.1'
p6870
sVvor
p6871
S'63.1.3.5.1.1.9.4.3.3'
p6872
sVaha
p6873
S'63.1.3.4.2.5.6.1.2.2.1'
p6874
sVpso
p6875
S'137.100'
p6876
sVewo
p6877
S'63.1.3.1.2.2.6.2.1.25.1'
p6878
sVpsl
p6879
S'137.103'
p6880
sVboi
p6881
S'117.1.1'
p6882
sVtql
p6883
S'37.4.3.5.1.2.1.5.3.2.13'
p6884
sVtqm
p6885
S'60.4.9'
p6886
sVtqn
p6887
S'131.1.1'
p6888
sVtqo
p6889
S'60.11.1.1.2'
p6890
sVewe
p6891
S'63.1.3.4.1.2.2'
p6892
sVtqt
p6893
S'56.2.4'
p6894
sVtqu
p6895
S'77.4'
p6896
sVtqw
p6897
S'126.66'
p6898
sVtqp
p6899
S'37.4.3.5.1.5.1.2.5.1'
p6900
sVrax
p6901
S'63.1.3.5.1.1.6.3.1.5'
p6902
sVtqr
p6903
S'63.2.4.1.4.4'
p6904
sVmor
p6905
S'63.2.1.2.3.1'
p6906
sVray
p6907
S'37.4.3.5.1.2.1.1.1.2.1.1.1.1'
p6908
sVsyc
p6909
S'1.6.1.1.1.1'
p6910
sVsya
p6911
S'37.4.5.4.1.3'
p6912
sVpsa
p6913
S'60.28.1.1.2'
p6914
sVdgg
p6915
S'37.4.3.5.1.5.3.1.2.2.1.2'
p6916
sVdge
p6917
S'60.13.1.5.3'
p6918
sVsyk
p6919
S'1.2.1.1.6.1'
p6920
sVame
p6921
S'142.2.4.2'
p6922
sVdgh
p6923
S'1.2.1.1.4.2.1.2'
p6924
sVsyo
p6925
S'33.1.2.4.2.3.1'
p6926
sVlif
p6927
S'151.2.7.2.2.1.10'
p6928
sVsym
p6929
S'63.3.1.1.4.2'
p6930
sVdgr
p6931
S'14.1.2.7'
p6932
sVdgs
p6933
S'63.1.3.5.2.2.2.1.1'
p6934
sVmou
p6935
S'1.2.2.2.1.1.7'
p6936
sVhru
p6937
S'151.2.1.2.1'
p6938
sVdgz
p6939
S'60.32.1.1'
p6940
sVdgx
p6941
S'60.15.1.2.2.1.1.2'
p6942
sVsyx
p6943
S'63.1.3.1.2.2.6.2.2.3.1'
p6944
sVgsp
p6945
S'60.22.1.7.7.1'
p6946
sVknl
p6947
S'37.4.10.2.2'
p6948
sVjbt
p6949
S'54.2'
p6950
sVjbr
p6951
S'48.2.3.7'
p6952
sVmoj
p6953
S'63.1.3.5.1.2.4.1.2.2.4.2'
p6954
sVknf
p6955
S'63.1.1.2.1.3.2'
p6956
sVkng
p6957
S'63.1.3.1.2.2.6.1.5.6.2'
p6958
sVknd
p6959
S'60.31.2.1'
p6960
sVknc
p6961
S'67.9.2.1.3'
p6962
sVkdn
p6963
S'63.1.3.1.2.2.6.1.10.10.1'
p6964
sVkna
p6965
S'1.2.4.1.2.2.1.1'
p6966
sVmwh
p6967
S'37.4.3.5.1.5.2.2.2.8.3.2'
p6968
sVpwa
p6969
S'60.30.1'
p6970
sVknz
p6971
S'63.1.3.5.2.2.2.4.2.1'
p6972
sVknx
p6973
S'37.4.10.2.1'
p6974
sVkny
p6975
S'63.1.3.1.2.2.6.1.8.3.1'
p6976
sVknv
p6977
S'20.3.1'
p6978
sVknw
p6979
S'118.1.2'
p6980
sVknu
p6981
S'63.3.2.1.2.1.1'
p6982
sVjbk
p6983
S'60.36.2.1'
p6984
sVkns
p6985
S'33.1.1.2.4.1'
p6986
sVknp
p6987
S'63.1.3.1.2.1.3.1.1.1'
p6988
sVknq
p6989
S'33.1.1.2.4.2'
p6990
sVlda
p6991
S'63.3.1.2.1.2.2.2'
p6992
sVgno
p6993
S'141.3.1.1.1'
p6994
sVldg
p6995
S'63.1.3.1.3.2.4.3.1.3.1.2'
p6996
sVsgx
p6997
S'137.111'
p6998
sVldk
p6999
S'63.1.3.5.1.1.9.1.4'
p7000
sVldi
p7001
S'63.1.3.1.2.2.6.1.5.6.3'
p7002
sVldh
p7003
S'63.1.3.1.2.1.1.4'
p7004
sVldo
p7005
S'63.1.3.5.1.1.9.1.5'
p7006
sVldm
p7007
S'63.1.1.3.2.3.1.7'
p7008
sVldl
p7009
S'63.1.3.5.1.1.9.4.1.1'
p7010
sVaqm
p7011
S'60.19.1'
p7012
sVpsr
p7013
S'137.101'
p7014
sVldq
p7015
S'8829'
p7016
sVldp
p7017
S'63.1.3.5.1.1.9.3.2.2'
p7018
sVkxb
p7019
S'63.1.3.4.2.5.6.3.1'
p7020
sVamp
p7021
S'147.7.1.1'
p7022
sVpsp
p7023
S'137.98'
p7024
sVwib
p7025
S'63.1.3.5.2.8.2'
p7026
sVcuw
p7027
S'151.2.7.2.2.1.7'
p7028
sVcuv
p7029
S'1.2.1.1.5.2'
p7030
sVrgr
p7031
S'142.1.3.1'
p7032
sVcut
p7033
S'83.1.1.2.1.2'
p7034
sVfse
p7035
S'137.36'
p7036
sVcur
p7037
S'151.2.7.2.2.1.6'
p7038
sVcux
p7039
S'83.1.1.2.1.1'
p7040
sVcug
p7041
S'63.1.3.1.2.2.1.2'
p7042
sVrga
p7043
S'37.4.3.5.1.2.1.5.3.5.14'
p7044
sVcuc
p7045
S'83.2.1.1.13'
p7046
sVrge
p7047
S'35.10.1'
p7048
sVcua
p7049
S'33.1.2.1.2.1'
p7050
sVsgp
p7051
S'151.2.5.3.1.2'
p7052
sVcum
p7053
S'142.3.1'
p7054
sVcul
p7055
S'25.2'
p7056
sVcui
p7057
S'22.1'
p7058
sVcuh
p7059
S'63.1.3.1.2.2.6.1.2.11.1'
p7060
sVbio
p7061
S'114.2.2'
p7062
sVbil
p7063
S'63.1.3.1.2.2.3.2.2'
p7064
sVasp
p7065
S'137.5'
p7066
sVaub
p7067
S'151.2.3.3.3.2'
p7068
sVbif
p7069
S'63.1.1.2.3.3.2'
p7070
sVbig
p7071
S'60.32.2.2.1'
p7072
sVbid
p7073
S'1.2.2.2.1.1.1'
p7074
sVbie
p7075
S'60.22.1.7.3.1'
p7076
sVbib
p7077
S'63.3.1.1.1.1'
p7078
sVmhl
p7079
S'60.22.1.7.3.2'
p7080
sVmhm
p7081
S'63.1.3.1.2.2.6.1.11.7.1'
p7082
sVbiz
p7083
S'63.1.3.1.2.2.6.2.3.3.1'
p7084
sVwii
p7085
S'52.2.4.1'
p7086
sVbix
p7087
S'33.2.1.1.2'
p7088
sVbiw
p7089
S'63.1.3.1.2.2.6.2.1.45.1'
p7090
sVbit
p7091
S'147.7.2.2'
p7092
sVbir
p7093
S'60.12.2.1'
p7094
sVbip
p7095
S'63.1.3.1.2.2.6.1.1.11.1'
p7096
sVbiq
p7097
S'37.4.3.5.1.1.1.1.3.1'
p7098
sVdus
p7099
S'151.2.7.2.2.2.2'
p7100
sVkuz
p7101
S'126.35'
p7102
sVljl
p7103
S'37.4.3.3.18'
p7104
sVypn
p7105
S'151.2.3.3.3.28'
p7106
sVxsu
p7107
S'120.2'
p7108
sVlje
p7109
S'37.4.2.2.2.1'
p7110
sVsgk
p7111
S'151.2.3.3.4.14'
p7112
sVefe
p7113
S'67.2.1.3.2'
p7114
sVqxs
p7115
S'151.2.4.5.6'
p7116
sVeee
p7117
S'35.1'
p7118
sVljp
p7119
S'37.4.7.2'
p7120
sVuam
p7121
S'126.70'
p7122
sVswh
p7123
S'63.1.3.1.2.2.6.1.4.19.1'
p7124
sVxsy
p7125
S'37.5.2'
p7126
sVenb
p7127
S'67.3.3.2.1.2.2.1'
p7128
sVkfc
p7129
S'141.3.1.2.1.1'
p7130
sVkxf
p7131
S'151.2.2.1.7'
p7132
sVnzy
p7133
S'63.1.3.5.1.1.7.4.1.1.3'
p7134
sVhuh
p7135
S'150.1'
p7136
sVijc
p7137
S'63.1.2.2.4.1'
p7138
sVije
p7139
S'63.1.2.2.3.1.1'
p7140
sVtij
p7141
S'151.2.7.2.2.2.8'
p7142
sVijj
p7143
S'63.1.3.1.4.3.1.4'
p7144
sVmha
p7145
S'141.3.1.2.2.2.1'
p7146
sVakq
p7147
S'147.10.1'
p7148
sVtyi
p7149
S'63.1.3.1.2.2.6.2.2.32.2'
p7150
sVwpc
p7151
S'139.1.1'
p7152
sVwbf
p7153
S'63.1.3.5.2.10.3'
p7154
sVpey
p7155
S'133.4.4'
p7156
sVpez
p7157
S'37.4.13.2.4.3.1'
p7158
sVter
p7159
S'142.2.3.3.2'
p7160
sVpep
p7161
S'20.1.2.8'
p7162
sVpem
p7163
S'63.1.3.1.2.2.6.1.8.11.1'
p7164
sVpeh
p7165
S'43.1.2.1'
p7166
sVwiy
p7167
S'5.2.1'
p7168
sVpej
p7169
S'111.1.1'
p7170
sVpek
p7171
S'37.4.3.5.1.1.1.3.5'
p7172
sVped
p7173
S'60.22.1.7.2.3'
p7174
sVpee
p7175
S'37.4.2.3.2.2.4'
p7176
sVpef
p7177
S'111.2'
p7178
sVpeg
p7179
S'141.3.1.2.2.2.2'
p7180
sVvnm
p7181
S'37.4.3.5.1.2.1.5.2.2.7'
p7182
sVpeb
p7183
S'111.1'
p7184
sVufi
p7185
S'60.13.1.2.7'
p7186
sVtxe
p7187
S'37.4.2.3.1.2'
p7188
sVrun
p7189
S'63.1.3.1.2.2.6.1.6.41.1'
p7190
sVruo
p7191
S'46.8.2.1.3'
p7192
sVziw
p7193
S'63.1.3.1.2.2.6.1.4.22.1'
p7194
sVrub
p7195
S'63.1.3.1.2.2.6.1.6.29.1'
p7196
sVruc
p7197
S'63.1.3.1.2.2.6.1.6.31.1'
p7198
sVsag
p7199
S'133.12.1'
p7200
sVxse
p7201
S'60.2.5.1'
p7202
sVruf
p7203
S'63.1.3.1.2.2.6.1.4.27.1'
p7204
sVcgg
p7205
S'63.1.3.1.2.2.6.1.6.36.1'
p7206
sVrue
p7207
S'46.3.2.1.3'
p7208
sVrus
p7209
S'46.3.2.1.2'
p7210
sVrup
p7211
S'46.8.2.1.1'
p7212
sVruq
p7213
S'46.8.2.1.4'
p7214
sVrut
p7215
S'79.1.5.2.3.1'
p7216
sVmsz
p7217
S'60.13.2.1.7'
p7218
sVbga
p7219
S'63.1.3.1.9.2.3.3'
p7220
sVahl
p7221
S'63.1.3.4.1.4.2'
p7222
sVylu
p7223
S'37.4.3.5.1.5.2.1.1.1.1.2'
p7224
sVada
p7225
S'63.1.3.4.2.4.1'
p7226
sVbgg
p7227
S'151.2.1.4.1'
p7228
sVmhr
p7229
S'92.2.2'
p7230
sVidt
p7231
S'37.4.3.12.1.4'
p7232
sVbgk
p7233
S'33.1.5.2.1.1'
p7234
sVbgl
p7235
S'33.1.9.3.1'
p7236
sVbgm
p7237
S'63.1.1.2.4.1'
p7238
sVbgo
p7239
S'63.1.1.3.2.3.1.3'
p7240
sVkiy
p7241
S'122.4.4.2'
p7242
sVaye
p7243
S'63.1.3.1.4.2.2'
p7244
sVyle
p7245
S'124.2.1'
p7246
sVylb
p7247
S'37.4.3.5.1.5.3.1.3.8'
p7248
sVbgu
p7249
S'63.1.3.1.2.1.3.1.2.1'
p7250
sVbgv
p7251
S'60.23.3.1'
p7252
sVidi
p7253
S'20.2.2'
p7254
sVylo
p7255
S'151.2.3.3.2.7'
p7256
sVbgz
p7257
S'37.4.2.1.1.1.2'
p7258
sVide
p7259
S'63.1.3.1.3.2.2.1.2'
p7260
sVidb
p7261
S'133.13.5'
p7262
sVayg
p7263
S'63.1.3.4.2.5.6.2.1.6'
p7264
sVyli
p7265
S'60.37.1.2.3'
p7266
sVppl
p7267
S'96.2.1.2.1'
p7268
sVnsi
p7269
S'137.90'
p7270
sVkxz
p7271
S'60.20.2'
p7272
sVnsm
p7273
S'151.2.5.4.1.9'
p7274
sVgog
p7275
S'63.1.3.1.2.2.6.1.4.9.1'
p7276
sVaya
p7277
S'127.3.4.2.1'
p7278
sVnsc
p7279
S'63.1.3.1.2.3.3'
p7280
sVnsd
p7281
S'151.2.3.3.3.22'
p7282
sVnse
p7283
S'63.1.3.1.2.2.6.1.10.9.1'
p7284
sVnsf
p7285
S'151.2.3.3.3.21'
p7286
sVnsg
p7287
S'67.3.3.1.2.1.2.2'
p7288
sVnsx
p7289
S'63.1.3.1.2.2.6.1.5.10.1'
p7290
sVnsy
p7291
S'37.4.12.1'
p7292
sVnsz
p7293
S'138.2'
p7294
sVtrs
p7295
S'83.1.1.2.3.1'
p7296
sVnsp
p7297
S'137.87'
p7298
sVyrk
p7299
S'92.6.1.1'
p7300
sVnsr
p7301
S'137.79'
p7302
sVnss
p7303
S'37.4.3.5.1.1.1.1.1.9'
p7304
sVnst
p7305
S'151.2.5.1.2.11'
p7306
sVtyv
p7307
S'80.3.7'
p7308
sVnsv
p7309
S'151.2.3.3.3.23'
p7310
sVnsw
p7311
S'37.4.3.5.1.2.1.5.3.5.11'
p7312
sVxpk
p7313
S'95.2'
p7314
sVmkf
p7315
S'1.2.4.2.2.6'
p7316
sVmkd
p7317
S'46.3.2.2.1.2'
p7318
sVmkc
p7319
S'52.2.3.2'
p7320
sVxpn
p7321
S'8820'
p7322
sVixl
p7323
S'15.2.2.2.1.2'
p7324
sVchq
p7325
S'83.2.1.1.8'
p7326
sVmko
p7327
S'63.1.3.5.1.1.9.1.8'
p7328
sVixc
p7329
S'83.1.2.1.2'
p7330
sVmkm
p7331
S'37.4.11.2'
p7332
sVnjd
p7333
S'63.1.3.1.2.2.6.1.11.16.1'
p7334
sVmkk
p7335
S'63.1.3.1.2.2.6.2.1.44.1'
p7336
sVmkj
p7337
S'37.4.3.5.1.2.1.3.1.4.1.1'
p7338
sVxpe
p7339
S'63.3.2.1.2.1.3'
p7340
sVmsy
p7341
S'127.3.3.2'
p7342
sVmkv
p7343
S'37.4.3.5.1.2.1.5.3.5.6'
p7344
sVmkt
p7345
S'37.4.3.5.1.2.1.4.2.2'
p7346
sVmks
p7347
S'83.1.1.2.2.34'
p7348
sVmkr
p7349
S'60.22.1.3.3'
p7350
sVmkp
p7351
S'60.32.7.3'
p7352
sVshj
p7353
S'67.3.4.1.1.2'
p7354
sVlnz
p7355
S'63.1.3.1.2.2.6.1.5.13.1'
p7356
sVnji
p7357
S'29.14.2'
p7358
sVsdt
p7359
S'46.8.2.2.2.1.2.2.2'
p7360
sVsdu
p7361
S'37.4.2.2.2.2'
p7362
sVgoa
p7363
S'63.3.1.2.1.1.1'
p7364
sVsdp
p7365
S'151.2.1.4.6'
p7366
sVwng
p7367
S'60.28.1.2.6'
p7368
sVaqr
p7369
S'37.4.3.5.1.2.1.4.3.2.1.2'
p7370
sVwnk
p7371
S'37.4.3.10.2.7'
p7372
sVayz
p7373
S'19.2'
p7374
sVsdx
p7375
S'37.4.13.1.2.4'
p7376
sVwno
p7377
S'60.37.1.3.1'
p7378
sVnaa
p7379
S'8837'
p7380
sVaqz
p7381
S'76.6.1'
p7382
sVpwg
p7383
S'37.4.3.5.1.5.3.1.2.2.1.3'
p7384
sVwnp
p7385
S'52.6.1.7'
p7386
sVpwb
p7387
S'63.1.3.1.9.1.2.1'
p7388
sVsda
p7389
S'37.4.18.4.5.5'
p7390
sVaqc
p7391
S'79.1.5.1.1'
p7392
sVsdc
p7393
S'46.8.2.3.2.4'
p7394
sVpwn
p7395
S'37.6.1'
p7396
sVpwo
p7397
S'151.2.2.3.4'
p7398
sVsdn
p7399
S'46.8.2.3.2.2'
p7400
sVwny
p7401
S'29.16.2'
p7402
sVchz
p7403
S'83.2.1.1.6'
p7404
sVsdj
p7405
S'63.1.3.1.2.2.6.1.5.5.1'
p7406
sVnzb
p7407
S'63.1.3.1.2.2.6.2.2.20.1'
p7408
sVcic
p7409
S'55.2.1'
p7410
sVcib
p7411
S'63.1.3.4.1.2.3'
p7412
sVcia
p7413
S'37.4.2.1.2.2.1.1.2.1'
p7414
sVuta
p7415
S'63.1.3.1.2.2.9.16'
p7416
sVcie
p7417
S'1.2.1.1.4.2.1.1'
p7418
sVcid
p7419
S'126.17'
p7420
sVsxw
p7421
S'63.1.3.4.1.2.7'
p7422
sVlpx
p7423
S'67.3.3.1.2.1.1.4'
p7424
sVtvo
p7425
S'104.1.3.2'
p7426
sVtrt
p7427
S'149.9'
p7428
sVutr
p7429
S'63.1.3.1.6.1.2.1.1'
p7430
sVcir
p7431
S'37.4.3.5.1.2.1.4.3.2.3.2'
p7432
sVcip
p7433
S'83.2.2.1.1'
p7434
sVklj
p7435
S'80.4.3'
p7436
sVutu
p7437
S'60.22.1.2.16'
p7438
sVneg
p7439
S'72.1.3.1'
p7440
sVsxb
p7441
S'63.1.3.1.2.2.6.1.6.12.1'
p7442
sVsxe
p7443
S'63.1.3.1.2.2.6.2.2.2.1'
p7444
sVbog
p7445
S'137.12'
p7446
sVczo
p7447
S'151.1.9'
p7448
sVsxm
p7449
S'33.1.2.4.2.2.1'
p7450
sVsxr
p7451
S'37.9.2'
p7452
sVlyg
p7453
S'33.1.5.1.2'
p7454
sVtvd
p7455
S'63.1.3.1.9.2.5.5'
p7456
sVlyn
p7457
S'63.1.3.1.2.2.6.1.7.10.1'
p7458
sVdoe
p7459
S'63.1.3.1.2.2.6.1.4.21.1'
p7460
sVnab
p7461
S'59.2.1'
p7462
sVgrw
p7463
S'37.4.3.5.1.5.3.1.2.2.2.1'
p7464
sVkqq
p7465
S'61.1'
p7466
sVkqp
p7467
S'1.2.2.1.2.1.1'
p7468
sVnaf
p7469
S'60.13.2.3.5'
p7470
sVkqv
p7471
S'37.4.13.2.3.2.1.2'
p7472
sVkqu
p7473
S'84.1.2'
p7474
sVkqt
p7475
S'37.4.13.4.1.2.3'
p7476
sVnaj
p7477
S'63.1.1.2.4.3'
p7478
sVnak
p7479
S'37.4.3.5.1.5.1.3.4'
p7480
sVnan
p7481
S'151.1.8'
p7482
sVext
p7483
S'46.8.2.2.2.1.2.3.2.1'
p7484
sVnal
p7485
S'37.4.3.5.1.5.1.2.1.3'
p7486
sVnam
p7487
S'29.2.4.2'
p7488
sVkqc
p7489
S'60.32.6.1'
p7490
sVnas
p7491
S'16.2.3'
p7492
sVnap
p7493
S'46.8.2.2.1.4'
p7494
sVnaq
p7495
S'102.1.2.2.1'
p7496
sVnav
p7497
S'14.1.1.1'
p7498
sVkqf
p7499
S'37.4.3.5.1.5.3.1.2.6.2'
p7500
sVnat
p7501
S'63.1.3.1.9.2.6.2'
p7502
sVnau
p7503
S'37.4.3.5.1.2.1.3.2.1'
p7504
sVkqk
p7505
S'63.1.3.4.1.2.6'
p7506
sVkqj
p7507
S'16.2.2'
p7508
sVnax
p7509
S'21.4'
p7510
sVgrm
p7511
S'37.4.13.4.1.2.5'
p7512
sVgrj
p7513
S'63.1.3.3.5.2.3.5'
p7514
sVkqn
p7515
S'63.1.3.1.2.2.6.1.8.1.1'
p7516
sVkqm
p7517
S'63.1.3.5.2.2.2.3.3'
p7518
sVgri
p7519
S'37.4.3.5.1.2.3.1.3.2'
p7520
sVsjd
p7521
S'92.5.1.3'
p7522
sVbwe
p7523
S'151.2.2.1.1'
p7524
sVkif
p7525
S'151.2.7.2.1.2.1.1'
p7526
sVxtj
p7527
S'83.1.1.2.2.29'
p7528
sVdos
p7529
S'63.1.3.5.2.2.2.3.1'
p7530
sVtmt
p7531
S'37.4.3.5.1.2.1.5.3.5.17'
p7532
sVlpe
p7533
S'8828'
p7534
sVago
p7535
S'60.1.2.10'
p7536
sVagm
p7537
S'60.1.1.1'
p7538
sVsvm
p7539
S'46.3.2.2.2.4'
p7540
sVagj
p7541
S'1.6.2.1.2.2.1.2'
p7542
sVagi
p7543
S'33.2.1.1.1'
p7544
sVagh
p7545
S'63.1.3.1.2.2.6.2.3.38.1'
p7546
sVagg
p7547
S'143.1'
p7548
sVagf
p7549
S'37.4.3.7.1'
p7550
sVage
p7551
S'60.12.1.1'
p7552
sVsve
p7553
S'37.4.3.2.2.1.5'
p7554
sVdva
p7555
S'37.4.3.5.1.5.3.1.2.4.4'
p7556
sVagb
p7557
S'63.1.3.1.3.2.4.3.1.3.1.1'
p7558
sVaga
p7559
S'883'
p7560
sVxbr
p7561
S'37.4.3.10.2.2'
p7562
sVqug
p7563
S'123.2.1.1.9'
p7564
sVdds
p7565
S'63.1.3.2.8'
p7566
sVxbi
p7567
S'52.1.2.3'
p7568
sVdot
p7569
S'1.2.4.2.3.1'
p7570
sVlgg
p7571
S'67.2.1.4.1.5'
p7572
sVagx
p7573
S'79.1.5.2.1.1'
p7574
sVagw
p7575
S'37.4.3.5.1.2.3.2.2.3'
p7576
sVxbd
p7577
S'29.10.2'
p7578
sVagu
p7579
S'15.2.2.2.1.1'
p7580
sVags
p7581
S'63.1.3.1.2.2.9.8'
p7582
sVagr
p7583
S'70.1'
p7584
sVbvr
p7585
S'29.6.1.1'
p7586
sVbvq
p7587
S'67.2.2.1.3.1'
p7588
sVbvp
p7589
S'33.1.5.4.1.3.1.2'
p7590
sVbvw
p7591
S'1.2.1.1.1.1.1'
p7592
sVqvi
p7593
S'123.2.1.1.10'
p7594
sVqvj
p7595
S'123.2.1.1.11'
p7596
sVgvf
p7597
S'60.5.1.3'
p7598
sVbvx
p7599
S'63.1.3.1.2.2.6.2.3.39.1'
p7600
sVquf
p7601
S'123.2.2.1.2'
p7602
sVnkq
p7603
S'63.1.3.4.2.5.6.2.1.12'
p7604
sVbvc
p7605
S'37.4.3.5.1.2.3.2.1.2.2'
p7606
sVbvb
p7607
S'63.1.3.1.2.2.6.2.1.14.1'
p7608
sVbva
p7609
S'1.2.2.2.3.1'
p7610
sVbvg
p7611
S'63.1.3.1.2.2.6.2.1.34.1'
p7612
sVali
p7613
S'60.22.1.7.1.1'
p7614
sVqvz
p7615
S'123.2.1.1.12'
p7616
sVbvd
p7617
S'37.4.3.5.1.2.3.2.1.2.1'
p7618
sVbvk
p7619
S'37.4.13.2.4.1.3.2'
p7620
sVbvj
p7621
S'63.1.3.1.3.2.3.2.1'
p7622
sVbvi
p7623
S'63.1.3.5.1.2.4.2.3.1.2'
p7624
sVbvh
p7625
S'1.2.4.1.2.1.1.3'
p7626
sVkiw
p7627
S'60.20.4'
p7628
sVbvn
p7629
S'52.3.1'
p7630
sVqvs
p7631
S'123.2.1.1.5'
p7632
sVlkn
p7633
S'37.4.3.5.1.2.1.5.3.2.12'
p7634
sVlko
p7635
S'63.1.3.1.2.2.6.1.6.26.1'
p7636
sVlkl
p7637
S'52.2.2.1'
p7638
sVtma
p7639
S'67.3.4.3.2.2'
p7640
sVlkd
p7641
S'59.1.1'
p7642
sVlke
p7643
S'63.1.3.1.2.2.6.1.6.38.1'
p7644
sVlkb
p7645
S'63.1.3.1.2.2.6.1.6.23.1'
p7646
sVtmb
p7647
S'37.4.3.5.1.2.1.5.2.2.1'
p7648
sVdnv
p7649
S'151.2.3.1.2.2'
p7650
sVlka
p7651
S'37.4.3.12.1.7'
p7652
sVebo
p7653
S'63.1.3.1.2.2.6.2.2.33.1'
p7654
sVlky
p7655
S'67.3.3.1.2.1.1.3'
p7656
sVddo
p7657
S'79.1.7.2.1'
p7658
sVpum
p7659
S'151.2.7.2.2.1.18'
p7660
sVlkr
p7661
S'67.3.3.3.2.1.7.1'
p7662
sVlks
p7663
S'63.1.3.1.2.2.6.1.6.23.4'
p7664
sVtme
p7665
S'8851'
p7666
sVkcd
p7667
S'20.1.2.5'
p7668
sVlsl
p7669
S'137.72'
p7670
sVkcf
p7671
S'63.1.3.1.13.1'
p7672
sVkca
p7673
S'92.2'
p7674
sVyre
p7675
S'63.3.1.2.1.1.2'
p7676
sVkcc
p7677
S'63.1.3.1.3.2.4.3.1.2.2'
p7678
sVkcb
p7679
S'60.1.2.5'
p7680
sVkcm
p7681
S'67.2.2.1.2.2'
p7682
sVkcl
p7683
S'37.4.3.5.1.5.2.1.2.2'
p7684
sVkco
p7685
S'60.13.2.3.1'
p7686
sVkcn
p7687
S'133.2.3'
p7688
sVpui
p7689
S'115.2'
p7690
sVkck
p7691
S'63.1.3.1.2.2.6.1.13.12.1'
p7692
sVkcj
p7693
S'63.1.1.2.3.2.2'
p7694
sVkcu
p7695
S'63.1.3.1.2.2.6.1.4.28.1'
p7696
sVkct
p7697
S'127.3.4.3.1'
p7698
sVkcw
p7699
S'63.1.3.1.2.2.6.1.6.53.1'
p7700
sVkcv
p7701
S'63.1.3.1.2.2.6.1.8.14.1'
p7702
sVkcq
p7703
S'63.1.3.5.1.1.9.3.1.2'
p7704
sVkcp
p7705
S'67.5.1'
p7706
sVkcs
p7707
S'1.2.4.1.3.1.2.2'
p7708
sVkcr
p7709
S'63.2.2.1'
p7710
sVasq
p7711
S'137.11'
p7712
sVvlp
p7713
S'37.4.3.5.1.2.1.5.3.5.21'
p7714
sVbxd
p7715
S'151.2.3.1.1.5'
p7716
sVjqr
p7717
S'41.2.1'
p7718
sVkcz
p7719
S'63.1.3.1.2.2.6.1.3.6.1'
p7720
sVsyi
p7721
S'63.1.3.1.2.2.6.2.2.5.1'
p7722
sVtrh
p7723
S'60.32.1.8'
p7724
sVtrj
p7725
S'1.2.2.2.1.2.5'
p7726
sVtrl
p7727
S'8850'
p7728
sVevn
p7729
S'72.1.2.1'
p7730
sVbxq
p7731
S'1.2.4.1.2.1.1.1'
p7732
sVtml
p7733
S'60.2.1.6'
p7734
sVbxs
p7735
S'63.1.3.1.2.2.11.3.3'
p7736
sVtrb
p7737
S'37.4.3.5.1.5.2.4.1.1.3'
p7738
sVtre
p7739
S'37.4.3.1.12'
p7740
sVeve
p7741
S'72.1.1.1'
p7742
sVtry
p7743
S'151.2.5.3.1.4'
p7744
sVbxh
p7745
S'37.4.3.5.1.5.3.1.3.1'
p7746
sVbxk
p7747
S'63.1.3.1.2.2.6.1.6.22.1'
p7748
sVtrz
p7749
S'81.1.3'
p7750
sVbxm
p7751
S'43.1.3.1.1.2'
p7752
sVkmy
p7753
S'63.1.3.5.1.1.6.1.3.2.2.2.1'
p7754
sVbxo
p7755
S'107.5.1'
p7756
sVcar
p7757
S'73.1'
p7758
sVbxa
p7759
S'37.4.3.5.1.2.3.2.2.5'
p7760
sVbxc
p7761
S'63.1.3.1.2.2.6.2.2.6.1'
p7762
sVddd
p7763
S'67.3.3.1.2.1.1.1'
p7764
sVbxe
p7765
S'1.7.1'
p7766
sVits
p7767
S'63.1.3.1.4.3.1.7'
p7768
sVbxg
p7769
S'63.1.3.1.2.2.6.2.3.1.1'
p7770
sVtrv
p7771
S'37.1.2'
p7772
sVrro
p7773
S'37.4.3.5.1.5.3.2.1.3.2.5'
p7774
sVgrx
p7775
S'114.1.1'
p7776
sVcap
p7777
S'97.1'
p7778
sVmnx
p7779
S'145.2.1.1'
p7780
sVtdj
p7781
S'37.4.2.3.2.2.5'
p7782
sVcaw
p7783
S'126.11'
p7784
sVcds
p7785
S'137.20'
p7786
sVtdi
p7787
S'37.4.2.1.2.1.2.1.3'
p7788
sVulw
p7789
S'23.3'
p7790
sVtdh
p7791
S'151.2.7.2.2.2.7'
p7792
sVkik
p7793
S'63.1.3.1.2.2.6.1.2.6.1'
p7794
sVsad
p7795
S'126.57'
p7796
sVoda
p7797
S'63.1.3.1.3.2.4.4.3'
p7798
sVbzv
p7799
S'63.1.3.1.2.2.1.5'
p7800
sVraq
p7801
S'151.2.7.2.2.1.19'
p7802
sVbde
p7803
S'1.2.4.2.1.1.1'
p7804
sVbdd
p7805
S'37.4.3.5.1.5.3.1.2.4.2'
p7806
sVbdf
p7807
S'60.32.3.2.1'
p7808
sVbda
p7809
S'63.1.1.2.1.2.1.1'
p7810
sVbdc
p7811
S'101.1.2.1'
p7812
sVbdb
p7813
S'37.4.13.3.1'
p7814
sVsaw
p7815
S'60.28.1.4.1'
p7816
sVbdn
p7817
S'1.2.1.1.5.1'
p7818
sVbdi
p7819
S'67.3.3.3.2.1.4.1.1'
p7820
sVbdh
p7821
S'67.2.2.1.1.1.1'
p7822
sVbdk
p7823
S'79.1.5.2.2.1'
p7824
sVbdj
p7825
S'63.1.3.5.1.2.4.2.3.1.1'
p7826
sVbdu
p7827
S'63.1.3.1.2.2.6.2.1.32.1'
p7828
sVbdw
p7829
S'60.37.3.2.1'
p7830
sVych
p7831
S'151.2.3.3.2.4'
p7832
sVbdq
p7833
S'33.1.2.1.1.2'
p7834
sVbdp
p7835
S'63.1.3.1.2.2.6.1.3.11.1'
p7836
sVbds
p7837
S'1.3.4.3'
p7838
sVycl
p7839
S'151.2.3.3.1.17'
p7840
sVbdz
p7841
S'46.7.3.1'
p7842
sVlea
p7843
S'63.1.3.1.2.2.6.1.1.28.1'
p7844
sVleb
p7845
S'63.1.3.1.2.2.6.1.9.9.1'
p7846
sVlec
p7847
S'126.40'
p7848
sVled
p7849
S'67.2.1.1.1'
p7850
sVlee
p7851
S'63.1.3.5.2.2.2.4.2.3'
p7852
sVlef
p7853
S'63.1.3.4.2.5.3.1.1'
p7854
sVleh
p7855
S'63.1.3.1.2.2.6.1.9.12.1'
p7856
sVlei
p7857
S'60.22.3.3.2'
p7858
sVlej
p7859
S'63.1.3.1.2.2.6.1.1.34.1'
p7860
sVlek
p7861
S'37.4.3.5.1.1.1.1.1.7'
p7862
sVlel
p7863
S'63.1.3.1.2.2.6.2.3.17.1'
p7864
sVlem
p7865
S'63.1.3.1.2.2.6.2.1.11.1'
p7866
sVlen
p7867
S'130.1'
p7868
sVleo
p7869
S'63.1.3.1.2.2.6.2.1.51.1'
p7870
sVlep
p7871
S'151.2.1.5.1'
p7872
sVleq
p7873
S'60.12.2.5'
p7874
sVler
p7875
S'37.4.3.5.1.1.1.3.2'
p7876
sVles
p7877
S'67.2.1.3.3'
p7878
sVleu
p7879
S'37.4.3.5.1.5.1.2.1.1'
p7880
sVlew
p7881
S'37.4.2.2.1.1.3'
p7882
sVlex
p7883
S'37.4.3.12.2.3.2'
p7884
sVley
p7885
S'37.4.18.2.1'
p7886
sVlez
p7887
S'79.1.5.2.1.2'
p7888
sVhka
p7889
S'63.1.3.1.2.2.6.1.2.4.1'
p7890
sVhke
p7891
S'63.1.3.1.2.2.6.1.6.49.1'
p7892
sVvbb
p7893
S'37.4.3.2.2.1.1'
p7894
sVula
p7895
S'63.1.3.1.9.2.6.4'
p7896
sVctp
p7897
S'83.1.2.2.1.4'
p7898
sVxam
p7899
S'84.1.3'
p7900
sVulf
p7901
S'8853'
p7902
sVctz
p7903
S'83.1.2.2.1.5'
p7904
sVcte
p7905
S'83.2.1.1.11'
p7906
sVzkr
p7907
S'151.2.1.3.1'
p7908
sVnme
p7909
S'151.2.5.4.8.4'
p7910
sVraa
p7911
S'151.2.7.2.2.1.8'
p7912
sVcta
p7913
S'83.1.2.2.1.3'
p7914
sVvum
p7915
S'63.1.3.1.2.2.6.2.2.24.1'
p7916
sVctl
p7917
S'83.2.1.1.12'
p7918
sVctm
p7919
S'126.19'
p7920
sVctn
p7921
S'151.2.7.2.2.1.5'
p7922
sVcto
p7923
S'101.1.1.2'
p7924
sVcth
p7925
S'151.2.5.4.4.1'
p7926
sVhue
p7927
S'42.2'
p7928
sVapz
p7929
S'60.1.2.7'
p7930
sVcoo
p7931
S'135.1.2'
p7932
sVapx
p7933
S'37.4.3.12.2.5.1'
p7934
sVapy
p7935
S'73.1.1'
p7936
sVwic
p7937
S'65.1.1'
p7938
sVhaa
p7939
S'14.1.2.9'
p7940
sVcnl
p7941
S'83.2.1.1.3'
p7942
sVapr
p7943
S'37.4.3.5.1.5.2.2.2.3.1'
p7944
sVaps
p7945
S'37.4.3.5.1.5.2.4.2.1'
p7946
sVapp
p7947
S'37.4.3.5.1.2.1.5.3.2.5'
p7948
sVwil
p7949
S'29.15.5'
p7950
sVsgw
p7951
S'1.6.2.1.2.1.2.4'
p7952
sVapu
p7953
S'142.2.3.2.1'
p7954
sVsgi
p7955
S'63.1.3.1.2.1.3.3.1.1'
p7956
sVwiv
p7957
S'37.4.3.5.1.5.1.1.2'
p7958
sVwiu
p7959
S'60.39.1'
p7960
sVkyh
p7961
S'126.32'
p7962
sVapn
p7963
S'62.2.1'
p7964
sVapb
p7965
S'37.4.3.5.1.2.3.2.1.3.3'
p7966
sVapc
p7967
S'1.6.1.2.1.21'
p7968
sVsgc
p7969
S'67.3.3.2.1.2.1.1'
p7970
sVsge
p7971
S'37.4.13.2.4.1.2.2'
p7972
sVapg
p7973
S'37.4.5.1.1'
p7974
sVapd
p7975
S'1.6.1.2.1.29'
p7976
sVape
p7977
S'52.1.1.3'
p7978
sVzaa
p7979
S'83.1.2.2.2.39'
p7980
sVcha
p7981
S'37.4.4.1'
p7982
sVchc
p7983
S'4.1.1'
p7984
sVchd
p7985
S'40.1'
p7986
sVche
p7987
S'79.1.6.2.1'
p7988
sVchf
p7989
S'15.2.1.1.1.1.1'
p7990
sVchg
p7991
S'80.2.2'
p7992
sVchh
p7993
S'93.1'
p7994
sVchj
p7995
S'83.2.1.1.5'
p7996
sVchk
p7997
S'37.4.3.5.1.2.1.3.1.4.2.2'
p7998
sVziz
p7999
S'1.2.1.1.8.12'
p8000
sVchn
p8001
S'107.1.1'
p8002
sVcho
p8003
S'55.2.2'
p8004
sVchp
p8005
S'14.1.2.6'
p8006
sVspp
p8007
S'63.1.3.5.2.5.5.5'
p8008
sVchr
p8009
S'50.1'
p8010
sVfer
p8011
S'63.1.3.5.1.2.4.2.1.1'
p8012
sVchu
p8013
S'46.3.2.2.1.3'
p8014
sVchv
p8015
S'80.1.1'
p8016
sVusp
p8017
S'15.2.2.1.2'
p8018
sVzin
p8019
S'63.1.3.1.2.2.6.1.6.3.1'
p8020
sVchy
p8021
S'5.1.2'
p8022
sVzil
p8023
S'63.3.2.1.2.2.1'
p8024
sVzim
p8025
S'1.2.3.4'
p8026
sVzik
p8027
S'60.23.1.2'
p8028
sVztx
p8029
S'83.1.2.2.2.55'
p8030
sVpfa
p8031
S'37.4.3.5.1.2.1.3.1.4.2.6'
p8032
sVndi
p8033
S'63.1.3.5.1.1.6.2.3'
p8034
sVkgr
p8035
S'126.2'
p8036
sVpfe
p8037
S'63.1.3.5.1.1.6.1.3.1.1'
p8038
sVacb
p8039
S'63.1.3.1.2.3.1'
p8040
sVasy
p8041
S'60.2.1.4'
p8042
sVndk
p8043
S'63.1.3.1.2.2.6.1.1.17.1'
p8044
sVkua
p8045
S'63.1.3.1.2.2.6.1.12.7.1'
p8046
sVztu
p8047
S'83.1.2.2.2.13'
p8048
sVkry
p8049
S'79.1.5.2.2.2'
p8050
sVgza
p8051
S'1.5.1.3.2.1'
p8052
sViii
p8053
S'151.2.3.3.2.10'
p8054
sVacf
p8055
S'133.6.8'
p8056
sVdzg
p8057
S'67.9.2.2.1'
p8058
sVpug
p8059
S'63.1.3.5.2.2.2.4.3.4'
p8060
sVgwj
p8061
S'102.1.1.4.2'
p8062
sVnda
p8063
S'63.1.3.1.2.2.6.2.2.1.1'
p8064
sVkyx
p8065
S'75.2.1'
p8066
sVmnp
p8067
S'151.1.6'
p8068
sVjnl
p8069
S'151.2.7.2.1.4.3'
p8070
sVppa
p8071
S'151.2.6.7'
p8072
sVkrp
p8073
S'63.1.3.1.3.2.4.4.2'
p8074
sVebr
p8075
S'63.1.3.4.2.5.5.1'
p8076
sVtat
p8077
S'80.5.3.3'
p8078
sVtau
p8079
S'14.1.2.18'
p8080
sVtaw
p8081
S'60.22.2.5'
p8082
sVtap
p8083
S'63.1.3.1.2.2.6.1.9.3.1'
p8084
sVtaq
p8085
S'1.1.3.2.3'
p8086
sVttj
p8087
S'63.1.3.1.2.2.6.1.6.33.1'
p8088
sVnde
p8089
S'63.1.3.1.2.2.6.1.13.7.1'
p8090
sVtax
p8091
S'1.2.2.2.3.4'
p8092
sVtay
p8093
S'37.1.1'
p8094
sVtaz
p8095
S'63.2.4.1.4.3'
p8096
sVacn
p8097
S'151.2.3.1.1.1'
p8098
sVtad
p8099
S'122.4.4.3'
p8100
sVtag
p8101
S'63.2.3.1'
p8102
sVtaa
p8103
S'14.1.2.17'
p8104
sVtab
p8105
S'79.1.5.2.1.3'
p8106
sVkyr
p8107
S'76.4.1'
p8108
sVtal
p8109
S'1.2.4.1.3.1.2.5'
p8110
sVtan
p8111
S'1.2.4.1.2.2.2.6'
p8112
sVsrm
p8113
S'133.5.1'
p8114
sVfal
p8115
S'63.1.3.5.1.1.1.2'
p8116
sVtde
p8117
S'63.1.3.2.14'
p8118
sVsir
p8119
S'1.2.4.2.2.8'
p8120
sVgcc
p8121
S'2.1.3'
p8122
sVafo
p8123
S'63.1.3.1.6.1.1.1'
p8124
sVgce
p8125
S'14.1.3.2.1'
p8126
sVgcd
p8127
S'29.11.1'
p8128
sVsiu
p8129
S'52.6.3.7'
p8130
sVafk
p8131
S'17.2'
p8132
sVafd
p8133
S'17.1'
p8134
sVsiz
p8135
S'1.1.1.2.1'
p8136
sVsix
p8137
S'60.22.3.6.3'
p8138
sVsrp
p8139
S'46.3.2.2.2.3'
p8140
sVafb
p8141
S'1.6.1.2.1.9'
p8142
sVgcn
p8143
S'60.15.1.2.2.1.2.1'
p8144
sVsuz
p8145
S'151.2.7.2.2.2.6'
p8146
sVsia
p8147
S'92.5.1.1'
p8148
sVdwa
p8149
S'1.2.4.2.2.3'
p8150
sVsig
p8151
S'63.1.3.5.2.2.2.4.3.3'
p8152
sVsif
p8153
S'63.1.3.3.4.1'
p8154
sVsie
p8155
S'63.1.3.1.2.2.6.1.7.16.1'
p8156
sVaft
p8157
S'67.3.4.2.1'
p8158
sVsij
p8159
S'37.4.3.5.1.5.2.1.3.1'
p8160
sVsii
p8161
S'33.1.4.5.1'
p8162
sVsih
p8163
S'37.4.3.5.1.2.1.4.3.2.3.1'
p8164
sVafp
p8165
S'17.3'
p8166
sVsim
p8167
S'147.5.3'
p8168
sVsil
p8169
S'63.1.3.5.2.2.2.4.3.5'
p8170
sVsis
p8171
S'126.61'
p8172
sVnpo
p8173
S'151.2.5.4.1.6'
p8174
sVnpn
p8175
S'37.4.3.5.1.1.1.1.3.5'
p8176
sVsrt
p8177
S'149.7'
p8178
sVnpg
p8179
S'151.2.5.1.2.10'
p8180
sVsru
p8181
S'76.3.2'
p8182
sVsiq
p8183
S'60.4.8'
p8184
sVbyt
p8185
S'67.9.1.1'
p8186
sVacz
p8187
S'63.2.4.1.4.1'
p8188
sVfab
p8189
S'133.13.4'
p8190
sVsiw
p8191
S'16.1.1'
p8192
sVnps
p8193
S'60.24.1.4'
p8194
sVdww
p8195
S'37.4.3.5.1.5.3.1.2.6.1'
p8196
sVmjd
p8197
S'138.1'
p8198
sVmje
p8199
S'1.2.1.2.2.3'
p8200
sVacx
p8201
S'1.6.1.2.1.23'
p8202
sVbcs
p8203
S'63.1.3.1.3.2.4.3.2.2.1.2'
p8204
sVmjm
p8205
S'37.4.3.5.1.5.2.4.1.2.4'
p8206
sVmjn
p8207
S'60.13.1.6.3'
p8208
sVgcf
p8209
S'133.6.1'
p8210
sVmjh
p8211
S'63.1.3.1.2.2.6.1.10.14.1'
p8212
sVmji
p8213
S'38.3.2.3'
p8214
sVmjj
p8215
S'60.22.1.7.6.2'
p8216
sVmjk
p8217
S'37.4.3.5.1.5.2.2.2.1.2.1.3'
p8218
sVmjt
p8219
S'141.2.6'
p8220
sVmju
p8221
S'141.3.2.2'
p8222
sVmmh
p8223
S'142.2.2.2.1'
p8224
sVndw
p8225
S'63.1.3.1.2.2.6.2.3.5.1'
p8226
sVshb
p8227
S'120.1'
p8228
sVmjs
p8229
S'1.2.4.1.3.1.1.4'
p8230
sVndv
p8231
S'63.1.1.2.2.2'
p8232
sVkbj
p8233
S'63.1.3.1.2.2.6.1.1.3.1'
p8234
sVkbk
p8235
S'60.32.3.2.3'
p8236
sVkbh
p8237
S'126.12'
p8238
sVkbi
p8239
S'37.4.3.5.1.5.2.3.2.4'
p8240
sVkbn
p8241
S'63.1.3.5.1.1.7.4.1.1.2'
p8242
sVvmk
p8243
S'63.1.3.1.2.2.6.1.11.1.7'
p8244
sVkbl
p8245
S'67.9.2.1.1'
p8246
sVvmi
p8247
S'29.15.3'
p8248
sVkbc
p8249
S'26.1.1'
p8250
sVvme
p8251
S'37.4.3.2.2.1.3'
p8252
sVmnu
p8253
S'146.2'
p8254
sVvmc
p8255
S'83.1.1.2.2.18'
p8256
sVkbd
p8257
S'79.2.2.2'
p8258
sVkbz
p8259
S'1.2.4.1.4.2.1'
p8260
sVkbx
p8261
S'127.1.1'
p8262
sVkby
p8263
S'67.9.2.1.4'
p8264
sVjng
p8265
S'29.6.13.3'
p8266
sVvmx
p8267
S'83.1.1.2.2.42'
p8268
sVmyj
p8269
S'63.1.3.5.1.2.4.2.1.2'
p8270
sVkbr
p8271
S'1.5.1.2.2.3.1'
p8272
sVjnj
p8273
S'1.5.1.2.1.1.1'
p8274
sVkbp
p8275
S'63.1.3.5.2.2.2.4.1.4'
p8276
sVkbq
p8277
S'60.17.1.5.2'
p8278
sVvmr
p8279
S'63.1.3.1.2.2.6.1.11.1.9'
p8280
sVvms
p8281
S'37.4.3.4.2.3'
p8282
sVkbt
p8283
S'37.4.3.5.1.5.3.2.1.3.1.1'
p8284
sVvmq
p8285
S'83.1.1.2.2.40'
p8286
sVtsn
p8287
S'63.1.3.1.2.2.6.1.13.13.1'
p8288
sVtso
p8289
S'63.1.3.1.2.2.6.1.13.18.1'
p8290
sVtsm
p8291
S'137.128'
p8292
sVbyz
p8293
S'127.3.1.3'
p8294
sVtsh
p8295
S'1.2.1.1.8.11'
p8296
sVzmz
p8297
S'63.1.3.5.1.2.1.3.1'
p8298
sVbyw
p8299
S'151.2.7.2.2.1.3'
p8300
sVtsd
p8301
S'46.6.2.1'
p8302
sVtse
p8303
S'137.127'
p8304
sVbyr
p8305
S'60.1.2.12'
p8306
sVtsc
p8307
S'63.1.3.1.2.2.6.1.13.17.1'
p8308
sVbyp
p8309
S'63.1.3.1.3.1.5'
p8310
sVbyq
p8311
S'37.3.2.1'
p8312
sVbyn
p8313
S'1.3.1.2.1'
p8314
sVbyo
p8315
S'151.2.3.3.4.3'
p8316
sVbyl
p8317
S'49.2'
p8318
sVdjc
p8319
S'67.3.4.1.2.2'
p8320
sVtsz
p8321
S'36.1'
p8322
sVtsx
p8323
S'60.16.2.6'
p8324
sVbyi
p8325
S'63.1.3.1.2.2.6.1.1.2.1'
p8326
sVtsv
p8327
S'63.1.3.1.2.2.6.2.2.47.1'
p8328
sVtsw
p8329
S'63.1.3.1.9.2.5.4'
p8330
sVbyd
p8331
S'37.4.8.1'
p8332
sVtsu
p8333
S'37.9.3'
p8334
sVtsr
p8335
S'37.4.3.5.1.2.1.5.3.5.1'
p8336
sVbyc
p8337
S'63.1.3.1.3.2.4.3.2.2.2.1'
p8338
sVtsp
p8339
S'63.1.3.5.2.8.1'
p8340
sVtsq
p8341
S'137.125'
p8342
sVdad
p8343
S'37.4.3.5.1.5.2.2.2.1.2.2.1'
p8344
sVdae
p8345
S'63.1.3.5.1.1.6.1.1.3'
p8346
sVdag
p8347
S'63.1.3.5.2.2.1.3.4.3.1'
p8348
sVdaa
p8349
S'1.2.2.2.1.1.2'
p8350
sVsni
p8351
S'95.4'
p8352
sVdal
p8353
S'1.3.4.4'
p8354
sVfub
p8355
S'63.1.1.2.5.1.1.2.1'
p8356
sVnym
p8357
S'63.1.3.1.2.2.6.1.3.6.2'
p8358
sVdah
p8359
S'60.13.1.5.6'
p8360
sVdai
p8361
S'63.1.3.5.1.1.7.2.1'
p8362
sVdaj
p8363
S'67.3.4.1.2.3'
p8364
sVdau
p8365
S'67.3.4.1.2.4'
p8366
sVdav
p8367
S'63.1.3.1.2.2.6.1.2.19.1'
p8368
sVlzl
p8369
S'37.4.3.5.1.2.1.5.2.2.3'
p8370
sVdar
p8371
S'79.1.2.1'
p8372
sVnyc
p8373
S'63.1.3.1.2.2.6.1.1.7.1'
p8374
sVjkr
p8375
S'151.2.6.3'
p8376
sVkmj
p8377
S'141.2.3'
p8378
sVbjh
p8379
S'147.7.2.1'
p8380
sVrau
p8381
S'151.2.7.2.1.4.2'
p8382
sVdaz
p8383
S'60.37.4.2'
p8384
sVkpq
p8385
S'60.24.1.1'
p8386
sVkpr
p8387
S'60.15.1.2.2.1.2.2'
p8388
sVkps
p8389
S'104.2.5'
p8390
sVkpt
p8391
S'79.1.1.1.7'
p8392
sVnfa
p8393
S'37.4.3.10.1.1'
p8394
sVkpw
p8395
S'60.22.2.4'
p8396
sVkpx
p8397
S'60.32.3.2.2'
p8398
sVkpy
p8399
S'113.1.2.3'
p8400
sVkpz
p8401
S'67.3.3.2.1.1.1'
p8402
sVnfl
p8403
S'37.4.3.5.1.4.1.1'
p8404
sVagc
p8405
S'63.1.3.1.6.1.2.2.1'
p8406
sVkpa
p8407
S'1.2.4.1.2.2.2.2'
p8408
sVkpd
p8409
S'37.4.3.1.5'
p8410
sVnfr
p8411
S'63.1.3.5.2.5.3.1'
p8412
sVkpf
p8413
S'60.13.2.3.2'
p8414
sVkpg
p8415
S'37.4.3.5.1.2.1.1.1.2.1.2.2.1'
p8416
sVkph
p8417
S'63.1.3.4.2.5.6.2.1.8'
p8418
sVkpi
p8419
S'149.5'
p8420
sVsoc
p8421
S'63.1.3.1.2.2.6.2.3.52.1'
p8422
sVkpl
p8423
S'63.1.3.5.1.2.4.1.2.2.4.1'
p8424
sVkpn
p8425
S'76.6.2'
p8426
sVkpo
p8427
S'63.1.3.4.1.4.3'
p8428
sVaog
p8429
S'127.2.1.1'
p8430
sVlfa
p8431
S'63.1.3.1.2.2.6.2.1.2.1'
p8432
sVoum
p8433
S'37.4.3.5.1.5.3.2.1.1.1'
p8434
sVaof
p8435
S'52.6.1.5'
p8436
sVoub
p8437
S'63.1.3.3.5.2.1.1'
p8438
sVmas
p8439
S'67.3.3.1.2.1.2.1'
p8440
sVoue
p8441
S'16.2.4'
p8442
sVasf
p8443
S'137.10'
p8444
sVaod
p8445
S'127.3.6.1'
p8446
sVahk
p8447
S'151.2.3.3.4.2'
p8448
sVras
p8449
S'63.2.3.2'
p8450
sVhle
p8451
S'151.2.3.3.1.1'
p8452
sVaob
p8453
S'60.35.1'
p8454
sVemu
p8455
S'141.3.1.1.6'
p8456
sVrey
p8457
S'24.2.2'
p8458
sVaoa
p8459
S'133.13.1'
p8460
sVrer
p8461
S'8844'
p8462
sVres
p8463
S'63.1.3.1.9.2.7.1'
p8464
sVmav
p8465
S'76.4'
p8466
sVcwt
p8467
S'63.1.1.2.1.2.2.3.1'
p8468
sVnog
p8469
S'80.5.1.4'
p8470
sVrej
p8471
S'37.4.17.1'
p8472
sVjkm
p8473
S'151.2.2.4.1'
p8474
sVsoe
p8475
S'63.1.3.1.2.2.6.2.3.15.1'
p8476
sVmax
p8477
S'133.11.12'
p8478
sVreb
p8479
S'37.4.3.3.25'
p8480
sVrea
p8481
S'60.22.3.5.3'
p8482
sVcwe
p8483
S'63.1.3.1.2.2.6.1.4.24.1'
p8484
sVreg
p8485
S'63.1.3.1.2.2.6.1.6.7.1'
p8486
sVcwg
p8487
S'33.1.1.2.1.1'
p8488
sVree
p8489
S'37.4.13.2.4.1.1.7'
p8490
sVbwp
p8491
S'60.28.1.2.4'
p8492
sVqup
p8493
S'123.2.1.1.6'
p8494
sVqus
p8495
S'123.2.1.2.3'
p8496
sVbws
p8497
S'63.1.3.1.2.2.6.2.3.31.1'
p8498
sVbwt
p8499
S'63.1.3.1.2.2.6.2.1.33.1'
p8500
sVbwu
p8501
S'63.1.3.5.2.2.1.3.1.1'
p8502
sVquw
p8503
S'123.2.1.1.14'
p8504
sVbww
p8505
S'63.1.3.1.2.2.6.2.3.36.1'
p8506
sVbwx
p8507
S'38.1.1.1'
p8508
sVbwy
p8509
S'63.1.3.5.2.2.1.1.3'
p8510
sVbwz
p8511
S'63.1.3.1.2.2.6.2.2.22.1'
p8512
sVtds
p8513
S'122.4.3.2'
p8514
sVbwb
p8515
S'37.4.3.5.1.2.1.1.2.2.2'
p8516
sVbwc
p8517
S'63.1.3.1.2.2.6.1.9.1.1'
p8518
sVbwd
p8519
S'37.4.3.5.1.5.3.1.2.3.1'
p8520
sVqud
p8521
S'123.2.1.1.7'
p8522
sVbwf
p8523
S'37.4.3.5.1.5.3.1.2.4.1'
p8524
sVbwg
p8525
S'63.1.3.1.2.2.6.1.10.12.1'
p8526
sVbwh
p8527
S'63.1.3.1.2.2.10.2'
p8528
sVquh
p8529
S'123.2.1.2.2'
p8530
sVbwj
p8531
S'63.1.3.5.2.2.1.1.4'
p8532
sVbwk
p8533
S'60.32.5.1'
p8534
sVbwl
p8535
S'63.1.3.1.2.2.6.2.3.35.1'
p8536
sVqul
p8537
S'123.2.1.2.1'
p8538
sVbwn
p8539
S'38.1.1.3'
p8540
sVbwo
p8541
S'1.5.1.2.2.2.1'
p8542
sVlts
p8543
S'63.1.3.1.2.2.6.1.6.22.2'
p8544
sVcri
p8545
S'133.13.12'
p8546
sVbak
p8547
S'80.5.3.1'
p8548
sVsua
p8549
S'126.62'
p8550
sVmab
p8551
S'83.1.1.2.2.52'
p8552
sVltg
p8553
S'46.3.1.1.1'
p8554
sVgin
p8555
S'79.1.7.2.2'
p8556
sVsnr
p8557
S'60.22.1.1.6'
p8558
sVlti
p8559
S'37.4.3.12.2.3.1'
p8560
sVlto
p8561
S'63.1.3.1.2.2.6.1.6.23.5'
p8562
sVltn
p8563
S'59.1.2'
p8564
sVsns
p8565
S'37.4.3.5.1.2.1.5.3.4.8'
p8566
sVzaq
p8567
S'83.1.2.2.2.1'
p8568
sVloi
p8569
S'63.1.3.5.2.6.1'
p8570
sVtsy
p8571
S'137.124'
p8572
sVsev
p8573
S'63.1.3.5.2.5.6.2'
p8574
sVihp
p8575
S'60.37.3.2.2'
p8576
sVsnq
p8577
S'63.1.3.1.2.2.6.2.2.26.1'
p8578
sVjiu
p8579
S'151.2.3.3.1.3'
p8580
sVpgk
p8581
S'37.4.3.5.1.2.1.5.3.4.11'
p8582
sVpgi
p8583
S'53.1.4'
p8584
sVsdl
p8585
S'137.109'
p8586
sVnpu
p8587
S'151.2.5.4.7.7'
p8588
sVihi
p8589
S'63.1.3.1.5.2.1'
p8590
sVpgs
p8591
S'63.1.3.5.1.1.6.3.1.4'
p8592
sVihb
p8593
S'107.6.1'
p8594
sVybi
p8595
S'151.2.7.2.2.1.23'
p8596
sVsvk
p8597
S'137.114'
p8598
sVrsi
p8599
S'137.105'
p8600
sVlor
p8601
S'63.1.3.5.2.6.2'
p8602
sVacv
p8603
S'91.1'
p8604
sVpkr
p8605
S'141.4.5'
p8606
sVasi
p8607
S'60.2.4.1'
p8608
sVsnz
p8609
S'60.22.3.2.4'
p8610
sVarw
p8611
S'142.1.2.1.1'
p8612
sVloq
p8613
S'63.1.3.1.2.2.6.2.3.48.2'
p8614
sVzms
p8615
S'63.1.3.1.2.2.6.2.3.51.1'
p8616
sVpwi
p8617
S'108.2'
p8618
sVsny
p8619
S'147.7.4.5'
p8620
sVhat
p8621
S'133.6.3'
p8622
sVrsl
p8623
S'137.107'
p8624
sVafn
p8625
S'63.1.2.1.1'
p8626
sVlot
p8627
S'67.3.3.1.2.1.1.5'
p8628
sVash
p8629
S'881'
p8630
sVudu
p8631
S'67.6.2.5'
p8632
sVogu
p8633
S'63.1.3.1.3.2.1.5'
p8634
sVzro
p8635
S'152.2.1'
p8636
sVrsb
p8637
S'35.15.1'
p8638
sVcyb
p8639
S'126.15'
p8640
sVogo
p8641
S'63.1.3.1.3.2.3.1.2'
p8642
sVmjg
p8643
S'43.1.2.4'
p8644
sVudg
p8645
S'141.4.6'
p8646
sVude
p8647
S'72.2.1.2.2'
p8648
sVudj
p8649
S'37.4.3.1.14'
p8650
sVogg
p8651
S'63.1.3.1.3.2.1.4'
p8652
sVtpr
p8653
S'76.6.5'
p8654
sVudl
p8655
S'1.2.1.1.5.17'
p8656
sVogb
p8657
S'63.1.3.1.3.2.1.3'
p8658
sVbej
p8659
S'1.3.3.1'
p8660
sVyby
p8661
S'60.17.1.6.2'
p8662
sVtdv
p8663
S'63.1.3.1.12.1'
p8664
sVshc
p8665
S'63.1.3.1.2.2.6.1.5.15.1'
p8666
sVbeo
p8667
S'60.4.2'
p8668
sVbel
p8669
S'46.3.2.1.1'
p8670
sVbem
p8671
S'63.1.3.1.2.2.6.1.9.4.1'
p8672
sVbeb
p8673
S'63.1.3.1.2.2.6.2.1.26.1'
p8674
sVbec
p8675
S'63.1.3.1.2.2.9.10'
p8676
sVbea
p8677
S'14.1.2.3'
p8678
sVbef
p8679
S'60.17.1.2.2'
p8680
sVbeg
p8681
S'37.4.13.2.1.2.1.1.1'
p8682
sVbed
p8683
S'37.4.3.5.2.2.1.1'
p8684
sVbez
p8685
S'63.1.3.1.2.2.6.1.4.3.1'
p8686
sVzmq
p8687
S'63.1.3.1.2.2.6.1.1.35.1'
p8688
sVbex
p8689
S'67.2.2.1.1.3.2'
p8690
sVbey
p8691
S'52.2.1.1'
p8692
sVybm
p8693
S'60.22.1.7.4.5'
p8694
sVybo
p8695
S'60.22.3.7.4'
p8696
sVyba
p8697
S'63.1.3.1.6.1.2.2.5'
p8698
sVvau
p8699
S'63.1.3.1.2.2.6.1.1.15.1'
p8700
sVbev
p8701
S'63.1.3.3.2.2.2.1'
p8702
sVybe
p8703
S'80.2.7'
p8704
sVbet
p8705
S'63.1.3.3.2.2.2.2'
p8706
sVjiq
p8707
S'151.2.4.6.3'
p8708
sVmjo
p8709
S'141.5.4'
p8710
sVkmh
p8711
S'60.22.2.3'
p8712
sVnqy
p8713
S'151.2.5.4.7.1'
p8714
sVoti
p8715
S'126.51'
p8716
sVnqg
p8717
S'63.1.3.1.4.3.1.11'
p8718
sVnqk
p8719
S'63.1.3.1.4.3.1.5'
p8720
sVidr
p8721
S'63.1.3.5.1.2.4.2.2.1'
p8722
sVnqn
p8723
S'20.1.1.6'
p8724
sVnqo
p8725
S'35.2'
p8726
sVtdt
p8727
S'133.16.1'
p8728
sVnqm
p8729
S'60.21.2'
p8730
sVmii
p8731
S'83.1.1.2.2.10'
p8732
sVmih
p8733
S'83.1.1.2.2.8'
p8734
sVmik
p8735
S'55.1.1.2.1'
p8736
sVmij
p8737
S'63.1.3.1.2.2.12.5'
p8738
sVmim
p8739
S'83.1.1.2.2.1'
p8740
sVmil
p8741
S'83.1.1.2.2.26'
p8742
sVmio
p8743
S'83.1.1.2.2.27'
p8744
sVmia
p8745
S'5.1.4'
p8746
sVmib
p8747
S'83.1.1.2.2.5'
p8748
sVmie
p8749
S'83.1.1.2.2.25'
p8750
sVmig
p8751
S'83.1.1.2.2.30'
p8752
sVmif
p8753
S'1.2.1.1.5.13'
p8754
sVmnc
p8755
S'72.2.2.1'
p8756
sVmix
p8757
S'83.1.1.2.2.22'
p8758
sVmiz
p8759
S'83.1.1.2.2.11'
p8760
sVarn
p8761
S'150.2'
p8762
sVbus
p8763
S'63.3.1.1.2.2'
p8764
sVmiq
p8765
S'23.2'
p8766
sVmip
p8767
S'83.1.1.2.2.4'
p8768
sVxrw
p8769
S'147.6.2'
p8770
sVseh
p8771
S'63.1.3.1.2.2.6.1.10.12.2'
p8772
sVmiu
p8773
S'83.1.1.2.2.7'
p8774
sVmit
p8775
S'83.1.1.2.2.38'
p8776
sVmiw
p8777
S'60.1.2.1'
p8778
sVwhg
p8779
S'60.5.4.3'
p8780
sVawy
p8781
S'60.28.1.1.4'
p8782
sVawx
p8783
S'60.13.1.4.1'
p8784
sVaww
p8785
S'147.10.2'
p8786
sVawv
p8787
S'60.28.1.1.5'
p8788
sVawu
p8789
S'60.28.1.1.3'
p8790
sVawt
p8791
S'76.7.1'
p8792
sVaws
p8793
S'60.28.1.1.7'
p8794
sVpyu
p8795
S'37.7.1'
p8796
sVmnd
p8797
S'76.3.1'
p8798
sVawo
p8799
S'63.1.3.5.1.1.9.3.1.1'
p8800
sVawn
p8801
S'1.3.1.3.1'
p8802
sVawm
p8803
S'60.22.3.3.1'
p8804
sVsfm
p8805
S'38.1.2.16'
p8806
sVppe
p8807
S'147.7.3.1'
p8808
sVawi
p8809
S'60.3.1'
p8810
sVawh
p8811
S'49.1'
p8812
sVawe
p8813
S'76.1'
p8814
sVywq
p8815
S'151.2.3.3.2.14'
p8816
sVawc
p8817
S'63.1.3.1.9.2.6.3'
p8818
sVpye
p8819
S'63.1.3.3.5.2.2.2'
p8820
sVttn
p8821
S'99.2.2'
p8822
sVjur
p8823
S'76.2.1'
p8824
sVsdk
p8825
S'147.4.12'
p8826
sVurg
p8827
S'60.22.3.6.4'
p8828
sVogc
p8829
S'63.1.3.1.7.2.8'
p8830
sVwss
p8831
S'63.1.3.4.2.5.6.1.1.3'
p8832
sVurc
p8833
S'29.5.3'
p8834
sVurm
p8835
S'60.28.2.2.9'
p8836
sVurn
p8837
S'37.4.3.7.4'
p8838
sVuro
p8839
S'2.1.6'
p8840
sVurh
p8841
S'63.1.3.1.5.4.4'
p8842
sVuri
p8843
S'52.5.1'
p8844
sVurk
p8845
S'37.4.10.2.4'
p8846
sVurt
p8847
S'52.6.2.1'
p8848
sVuru
p8849
S'76.5.2'
p8850
sVckv
p8851
S'37.3.2.2'
p8852
sVckq
p8853
S'1.2.2.2.1.2.2'
p8854
sVurr
p8855
S'37.4.3.5.1.2.1.5.3.2.17'
p8856
sVckr
p8857
S'2.1.1'
p8858
sVghk
p8859
S'151.2.2.1.3'
p8860
sVcky
p8861
S'1.2.4.1.3.1.1.1'
p8862
sVury
p8863
S'48.2.1.1'
p8864
sVckz
p8865
S'35.4.1'
p8866
sVdbj
p8867
S'37.4.13.4.2.1'
p8868
sVszn
p8869
S'37.4.3.4.4.2'
p8870
sVszl
p8871
S'46.3.2.3.2.3'
p8872
sVdbn
p8873
S'60.31.1.1'
p8874
sVszb
p8875
S'60.28.2.3.2'
p8876
sVszc
p8877
S'33.1.1.4.2'
p8878
sVsza
p8879
S'33.1.1.4.3'
p8880
sVdbe
p8881
S'48.2.3.4'
p8882
sVszg
p8883
S'63.1.3.1.2.2.6.2.3.8.1'
p8884
sVszd
p8885
S'37.4.13.1.2.5'
p8886
sVsze
p8887
S'1.5.1.3.2.3'
p8888
sVdby
p8889
S'60.4.3'
p8890
sVvmm
p8891
S'83.1.1.2.2.21'
p8892
sVwos
p8893
S'147.4.5'
p8894
sVibe
p8895
S'63.1.3.1.1.1'
p8896
sVdbq
p8897
S'1.2.1.1.7.2'
p8898
sVdbp
p8899
S'1.2.4.2.1.2.1'
p8900
sVszp
p8901
S'60.31.1.2'
p8902
sVszv
p8903
S'63.1.3.1.2.2.6.2.1.20.1'
p8904
sVdbt
p8905
S'63.1.3.2.4'
p8906
sVdbw
p8907
S'63.1.3.2.3'
p8908
sVgmg
p8909
S'60.22.4.1.4.1'
p8910
sVngd
p8911
S'63.1.3.1.2.2.6.2.3.40.1'
p8912
sVirh
p8913
S'37.4.3.5.2.1.1'
p8914
sVksw
p8915
S'151.2.2.4.3'
p8916
sVksv
p8917
S'63.1.3.1.2.2.6.2.3.58.1'
p8918
sVksq
p8919
S'1.2.4.1.2.2.2.3'
p8920
sVkss
p8921
S'63.1.1.3.2.1.2.1'
p8922
sVksr
p8923
S'60.13.2.1.1'
p8924
sVjav
p8925
S'37.4.6.1'
p8926
sVkbm
p8927
S'37.4.3.5.1.5.2.1.4.2.1'
p8928
sVngh
p8929
S'84.1.1'
p8930
sVksx
p8931
S'37.4.3.3.6'
p8932
sVksz
p8933
S'33.2.1.1.3'
p8934
sVkse
p8935
S'37.4.3.5.1.5.3.2.1.3.2.1'
p8936
sVngv
p8937
S'63.1.3.1.2.2.3.1.2'
p8938
sVngw
p8939
S'1.2.1.1.8.8'
p8940
sVngp
p8941
S'63.1.3.1.2.2.6.1.4.26.1'
p8942
sVngq
p8943
S'63.1.3.1.2.2.6.1.6.10.1'
p8944
sVngr
p8945
S'37.4.3.5.1.4.1.2'
p8946
sVngs
p8947
S'1.2.1.1.4.2.1.5'
p8948
sVjaf
p8949
S'1.2.1.1.1.2.1'
p8950
sVsyy
p8951
S'137.3'
p8952
sVjad
p8953
S'63.3.2.1.1.1.2.1.1.2'
p8954
sVjae
p8955
S'37.4.3.5.1.5.2.1.2.3'
p8956
sVksi
p8957
S'8.1.1'
p8958
sVngy
p8959
S'63.1.3.1.2.2.6.2.1.5.1'
p8960
sVngz
p8961
S'63.1.3.1.2.2.6.2.2.31.1'
p8962
sVjaa
p8963
S'25.1.1'
p8964
sVtby
p8965
S'104.1.1.6'
p8966
sVtbx
p8967
S'37.4.3.5.1.5.2.1.4.1.1.3'
p8968
sVgoe
p8969
S'151.2.7.1.1'
p8970
sVlsm
p8971
S'63.1.3.1.2.2.6.1.6.25.1'
p8972
sVmgg
p8973
S'63.1.3.1.2.2.6.2.1.49.2'
p8974
sVmgf
p8975
S'20.4.1'
p8976
sVmgd
p8977
S'67.2.1.4.2.1'
p8978
sVmgk
p8979
S'48.1.3.1'
p8980
sVmgj
p8981
S'63.1.3.1.3.2.1.1'
p8982
sVtbs
p8983
S'127.3.6.4'
p8984
sVmgh
p8985
S'63.1.3.1.2.2.6.1.11.1.5'
p8986
sVtbu
p8987
S'96.2.3.1'
p8988
sVtbt
p8989
S'63.1.3.1.2.2.6.1.6.52.1'
p8990
sVmgm
p8991
S'37.4.3.12.1.9'
p8992
sVmgl
p8993
S'37.4.3.5.1.5.2.2.2.2.1'
p8994
sVmgs
p8995
S'63.1.3.1.2.2.6.1.10.4.1'
p8996
sVmgr
p8997
S'63.1.3.1.2.2.6.1.9.8.1'
p8998
sVmgq
p8999
S'63.1.3.1.2.2.6.1.9.23.1'
p9000
sVtbj
p9001
S'37.4.3.5.1.5.1.2.1.4'
p9002
sVmgw
p9003
S'63.1.3.1.2.2.6.1.11.10.1'
p9004
sVmgv
p9005
S'63.1.3.1.2.2.6.1.10.6.1'
p9006
sVtbo
p9007
S'37.4.3.5.1.5.3.1.2.2.2.6'
p9008
sVmgt
p9009
S'39.2'
p9010
sVtba
p9011
S'126.3'
p9012
sVmgz
p9013
S'63.1.3.1.2.2.6.1.3.4.1'
p9014
sVtbc
p9015
S'37.4.3.5.1.5.2.2.2.1.2.1.4'
p9016
sVtbb
p9017
S'8847'
p9018
sVtbd
p9019
S'60.11.3.1'
p9020
sVxdy
p9021
S'37.4.10.2.3'
p9022
sVtbf
p9023
S'37.4.3.5.1.5.1.2.1.2'
p9024
sVgbf
p9025
S'147.4.4'
p9026
sVshq
p9027
S'63.1.3.1.2.2.6.1.9.15.1'
p9028
sVkgv
p9029
S'60.37.3.1.1'
p9030
sVshs
p9031
S'135.2.2'
p9032
sVhuz
p9033
S'79.1.7.1.2'
p9034
sVshu
p9035
S'1.6.1.2.1.4'
p9036
sVshv
p9037
S'1.6.2.2.5'
p9038
sVdpp
p9039
S'37.4.13.4.1.2.8'
p9040
sVshx
p9041
S'38.2.1'
p9042
sVgbo
p9043
S'63.1.3.3.5.2.3.4'
p9044
sVshz
p9045
S'63.1.3.5.2.5.4.3'
p9046
sVaez
p9047
S'60.15.1.2.2.2.1'
p9048
sVgbj
p9049
S'33.2.2.2.1.2.2'
p9050
sVlst
p9051
S'137.126'
p9052
sVmuh
p9053
S'63.1.3.5.1.2.4.1.2.1.2.1'
p9054
sVaec
p9055
S'1.6.1.2.1.25'
p9056
sVaeb
p9057
S'1.6.1.2.1.32'
p9058
sVshe
p9059
S'1.5.1.1.3'
p9060
sVshg
p9061
S'102.1.1.1.1'
p9062
sVlsr
p9063
S'52.6.1.4'
p9064
sVaek
p9065
S'37.4.3.5.1.2.1.4.1.1'
p9066
sVshk
p9067
S'67.3.3.3.2.1.5.1'
p9068
sVaem
p9069
S'33.1.9.1.1'
p9070
sVael
p9071
S'63.1.3.1.2.2.11.3.1'
p9072
sVgbx
p9073
S'63.1.3.4.1.2.4'
p9074
sVsho
p9075
S'63.3.1.1.3.2'
p9076
sVbtu
p9077
S'63.1.3.1.2.2.9.4'
p9078
sVbtt
p9079
S'63.1.3.1.3.1.3'
p9080
sVgrv
p9081
S'63.1.3.3.5.2.3.2'
p9082
sVbtq
p9083
S'33.1.1.2.2.1'
p9084
sVbtp
p9085
S'37.4.3.5.1.5.3.2.2.1.1'
p9086
sVbtr
p9087
S'37.4.3.5.1.2.1.5.3.2.6'
p9088
sVttl
p9089
S'63.1.3.1.2.2.6.1.7.18.1'
p9090
sVzpy
p9091
S'83.1.2.2.2.19'
p9092
sVebu
p9093
S'63.1.3.1.2.2.6.1.2.7.1'
p9094
sVbtg
p9095
S'63.1.3.3.2.2.1.1'
p9096
sVbtf
p9097
S'1.2.2.2.1.2.1'
p9098
sVbta
p9099
S'1.2.1.1.8.2'
p9100
sVbtc
p9101
S'63.1.3.1.2.2.6.2.1.56.1'
p9102
sVvmw
p9103
S'63.1.3.1.2.2.6.1.11.1.3'
p9104
sVbtl
p9105
S'885'
p9106
sVysn
p9107
S'151.2.3.3.1.22'
p9108
sVbti
p9109
S'149.3'
p9110
sVlup
p9111
S'63.1.3.1.2.2.6.2.2.28.1'
p9112
sVluq
p9113
S'63.1.3.1.4.3.1.8'
p9114
sVlur
p9115
S'37.4.3.10.2.5'
p9116
sVdlg
p9117
S'80.3.3'
p9118
sVluu
p9119
S'151.2.7.2.2.1.12'
p9120
sVluw
p9121
S'8830'
p9122
sVdlk
p9123
S'1.6.2.1.1.1'
p9124
sVkbv
p9125
S'143.2'
p9126
sVdln
p9127
S'151.2.6.1'
p9128
sVkbw
p9129
S'37.4.3.5.1.5.2.4.1.1.1'
p9130
sVlua
p9131
S'63.1.3.1.2.2.6.1.8.2.1'
p9132
sVlub
p9133
S'63.1.3.1.2.2.6.1.8.4.1'
p9134
sVluc
p9135
S'67.2.1.4.1.1'
p9136
sVlud
p9137
S'92.1.9'
p9138
sVlue
p9139
S'63.1.3.1.2.2.6.1.7.4.1'
p9140
sVluf
p9141
S'60.32.5.4'
p9142
sVlug
p9143
S'63.1.3.1.2.2.6.1.6.37.1'
p9144
sVluj
p9145
S'63.1.3.1.2.2.6.1.8.18.1'
p9146
sVlsy
p9147
S'137.80'
p9148
sVlul
p9149
S'67.2.1.4.3.3'
p9150
sVlum
p9151
S'63.1.3.1.2.2.6.1.7.2.1'
p9152
sVlun
p9153
S'63.1.3.1.2.2.6.1.8.8.1'
p9154
sVluo
p9155
S'67.3.3.3.2.2.3.2.1'
p9156
sVkeo
p9157
S'67.3.3.1.1.2'
p9158
sVken
p9159
S'63.1.3.1.2.2.4.3'
p9160
sVkem
p9161
S'37.4.3.12.1.6'
p9162
sVkel
p9163
S'63.1.3.1.2.2.6.2.3.61.1'
p9164
sVkek
p9165
S'15.2.2.1.1'
p9166
sVkei
p9167
S'37.4.3.9.1.1.2'
p9168
sVvrt
p9169
S'37.4.3.5.1.2.1.5.3.4.3'
p9170
sVkeg
p9171
S'67.3.4.4.2'
p9172
sVkef
p9173
S'63.1.3.4.1.2.11'
p9174
sVkee
p9175
S'98.1'
p9176
sVked
p9177
S'63.1.3.1.2.2.6.1.6.4.1'
p9178
sVkec
p9179
S'67.5.3'
p9180
sVkeb
p9181
S'63.1.3.1.2.2.6.2.2.7.1'
p9182
sVkea
p9183
S'133.13.6'
p9184
sVvra
p9185
S'37.4.3.5.1.2.1.5.3.2.30'
p9186
sVkez
p9187
S'63.1.3.1.3.2.4.3.2.1.2.1'
p9188
sVxas
p9189
S'92.6.2.1'
p9190
sVkew
p9191
S'60.12.1.6'
p9192
sVtsj
p9193
S'151.2.7.1.5'
p9194
sVkeu
p9195
S'63.1.3.4.1.3.1'
p9196
sVket
p9197
S'128.1'
p9198
sVvro
p9199
S'92.1.12'
p9200
sVker
p9201
S'1.2.2.1.3.1'
p9202
sVtls
p9203
S'37.4.3.5.1.2.1.5.3.5.15'
p9204
sVtlr
p9205
S'37.4.3.5.1.2.3.1.3.4'
p9206
sVtlq
p9207
S'33.1.5.4.1.1.7'
p9208
sVtlp
p9209
S'56.2.2'
p9210
sVbyx
p9211
S'2.1.4'
p9212
sVetu
p9213
S'63.1.3.1.2.2.2.1'
p9214
sVetz
p9215
S'146.3'
p9216
sVtlx
p9217
S'37.4.3.5.1.1.1.1.3.3'
p9218
sVtlc
p9219
S'56.2.9'
p9220
sVtlb
p9221
S'104.1.1.7'
p9222
sVtlg
p9223
S'8849'
p9224
sVtlf
p9225
S'60.28.2.2.7'
p9226
sVtlj
p9227
S'63.1.3.1.2.2.6.1.6.30.1'
p9228
sVtli
p9229
S'14.2.1'
p9230
sVphh
p9231
S'151.2.3.3.3.31'
p9232
sVetn
p9233
S'37.4.3.5.1.2.1.5.3.1.3'
p9234
sVtln
p9235
S'37.4.18.4.5.4'
p9236
sVtlm
p9237
S'37.4.3.5.1.2.1.5.3.5.19'
p9238
sVtll
p9239
S'63.1.3.1.2.2.6.2.3.57.2'
p9240
sVafi
p9241
S'127.3.5.2'
p9242
sVrpt
p9243
S'60.22.1.2.11'
p9244
sVomt
p9245
S'67.3.3.2.2.2'
p9246
sVbys
p9247
S'63.1.3.5.1.1.9.1.1'
p9248
sVjih
p9249
S'151.2.4.6.4'
p9250
sVtsa
p9251
S'63.1.3.1.2.2.6.2.2.21.1'
p9252
sVrpn
p9253
S'37.4.3.5.1.2.1.5.2.3.3'
p9254
sVbbn
p9255
S'37.4.3.5.1.5.1.1.1'
p9256
sVbbm
p9257
S'63.1.3.1.2.2.6.2.3.37.1'
p9258
sVbbl
p9259
S'79.1.6.1.1'
p9260
sVyay
p9261
S'63.1.3.1.3.2.4.3.2.2.1.1'
p9262
sVyax
p9263
S'63.1.3.1.2.2.6.1.7.6.2'
p9264
sVllk
p9265
S'37.4.13.2.1.2.1.2.1'
p9266
sVbbh
p9267
S'33.1.6.2'
p9268
sVbbg
p9269
S'63.1.3.1.2.2.6.2.2.23.1'
p9270
sVbbf
p9271
S'18.1'
p9272
sVbbe
p9273
S'63.1.3.5.1.2.4.1.2.1.1.1'
p9274
sVbbd
p9275
S'60.22.1.1.2'
p9276
sVyap
p9277
S'37.4.3.5.1.6.1'
p9278
sVyas
p9279
S'63.1.3.1.2.2.6.2.1.54.1'
p9280
sVyal
p9281
S'63.3.2.1.1.2.2'
p9282
sVyao
p9283
S'63.1.3.1.2.2.6.1.11.13.1'
p9284
sVyan
p9285
S'23.1'
p9286
sVbbz
p9287
S'133.2.1'
p9288
sVbby
p9289
S'63.1.3.1.2.2.11.1.1'
p9290
sVbbx
p9291
S'63.1.3.1.2.2.6.2.1.14.2'
p9292
sVyae
p9293
S'8842'
p9294
sVbbv
p9295
S'37.4.3.5.1.5.2.2.2.3.2'
p9296
sVbbu
p9297
S'63.1.3.1.2.2.3.2.7'
p9298
sVbbt
p9299
S'1.2.4.2.2.5'
p9300
sVbbs
p9301
S'63.1.3.1.3.2.4.1.2'
p9302
sVbbr
p9303
S'60.22.1.5.1'
p9304
sVyac
p9305
S'60.37.1.2.5'
p9306
sVbbp
p9307
S'63.1.3.5.1.2.1.5.1'
p9308
sVlgk
p9309
S'37.4.3.5.1.2.1.5.2.2.6'
p9310
sVlgh
p9311
S'151.2.3.3.3.11'
p9312
sVlgi
p9313
S'37.4.13.2.3.1.2'
p9314
sVlgn
p9315
S'67.6.2.4'
p9316
sVhmy
p9317
S'38.1.2.17'
p9318
sVlgl
p9319
S'37.4.3.5.1.2.3.2.1.2.9'
p9320
sVilg
p9321
S'29.17.3.1'
p9322
sVhmt
p9323
S'60.1.2.3'
p9324
sVpid
p9325
S'139.1.2'
p9326
sVhmv
p9327
S'38.1.2.3'
p9328
sVhmw
p9329
S'38.1.2.21'
p9330
sVotd
p9331
S'37.4.5.4.1.2'
p9332
sVhmq
p9333
S'38.1.4.1'
p9334
sVhms
p9335
S'38.1.4.3'
p9336
sVhml
p9337
S'38.1.2.12'
p9338
sVhmm
p9339
S'38.1.2.7'
p9340
sVamj
p9341
S'67.4.1'
p9342
sVhmo
p9343
S'107.8.1'
p9344
sVhmh
p9345
S'38.1.2.20'
p9346
sVpif
p9347
S'37.4.3.5.1.2.1.3.1.4.1.2'
p9348
sVhmj
p9349
S'38.1.2.1'
p9350
sVbyg
p9351
S'67.3.4.1.2.1'
p9352
sVlgr
p9353
S'37.4.3.5.1.2.3.1.2.2'
p9354
sVhme
p9355
S'38.1.2.9'
p9356
sVhmf
p9357
S'38.1.2.4'
p9358
sVhmg
p9359
S'38.1.2.19'
p9360
sVmyr
p9361
S'126.45'
p9362
sVhma
p9363
S'38.1.2.18'
p9364
sVlgt
p9365
S'147.8.4'
p9366
sVlgu
p9367
S'37.4.3.5.1.2.3.2.1.1.1'
p9368
sVinl
p9369
S'137.56'
p9370
sVbye
p9371
S'147.6.3'
p9372
sVyso
p9373
S'151.2.3.3.3.18'
p9374
sVcow
p9375
S'135.3.1.2'
p9376
sVmyh
p9377
S'100.2.2'
p9378
sVbyb
p9379
S'63.1.3.1.2.2.10.1'
p9380
sVpci
p9381
S'141.1.2.1'
p9382
sVysg
p9383
S'151.2.3.3.3.36'
p9384
sVtss
p9385
S'137.122'
p9386
sVcvn
p9387
S'83.2.1.1.14'
p9388
sVysy
p9389
S'151.2.3.3.2.13'
p9390
sVcbq
p9391
S'63.1.3.1.9.2.4.3'
p9392
sVeus
p9393
S'126.9'
p9394
sVsbq
p9395
S'60.22.4.1.4.3'
p9396
sVyss
p9397
S'147.8.6'
p9398
sVysr
p9399
S'10.2.2.3'
p9400
sVjiy
p9401
S'151.2.3.3.1.2'
p9402
sVrbb
p9403
S'33.1.5.4.2.2.2'
p9404
sVnol
p9405
S'108.1'
p9406
sVndu
p9407
S'63.1.3.5.1.1.6.1.1.2'
p9408
sVmgb
p9409
S'67.3.4.3.1.1'
p9410
sVwka
p9411
S'1.3.4.7'
p9412
sVavu
p9413
S'67.2.1.4.1.2'
p9414
sVcbu
p9415
S'126.13'
p9416
sVwkd
p9417
S'37.4.3.5.1.5.2.3.2.7'
p9418
sVavs
p9419
S'126.7'
p9420
sVavl
p9421
S'1.6.1.2.1.7'
p9422
sVmya
p9423
S'151.2.3.1.2.1'
p9424
sVavn
p9425
S'63.1.3.4.1.1.1'
p9426
sVlzz
p9427
S'82.3.1'
p9428
sVavi
p9429
S'63.1.3.4.2.3.2'
p9430
sVave
p9431
S'46.7.2.1'
p9432
sVwku
p9433
S'141.4.3'
p9434
sVpir
p9435
S'68.2.4'
p9436
sVcjk
p9437
S'63.1.3.1.2.2.6.1.7.1.1'
p9438
sVcjh
p9439
S'135.3.1.1'
p9440
sVfkk
p9441
S'1.2.1.1.3.4'
p9442
sVtas
p9443
S'107.4.1'
p9444
sVnoj
p9445
S'112.1'
p9446
sVnok
p9447
S'135.1.4'
p9448
sVmyd
p9449
S'136.5'
p9450
sVsbw
p9451
S'63.1.3.1.2.2.6.2.2.44.1'
p9452
sVcob
p9453
S'15.1.1'
p9454
sVmyg
p9455
S'63.1.3.1.2.2.9.13'
p9456
sVdei
p9457
S'149.1.2'
p9458
sVdam
p9459
S'63.1.3.1.9.2.3.2'
p9460
sVzga
p9461
S'63.1.3.1.2.2.6.1.4.5.1'
p9462
sVpiw
p9463
S'63.1.3.1.2.2.6.1.9.5.1'
p9464
sVcjv
p9465
S'60.5.1.1'
p9466
sVkkw
p9467
S'63.1.3.1.2.2.6.2.2.35.2'
p9468
sVfkv
p9469
S'92.1.3'
p9470
sVmzt
p9471
S'33.1.1.2.2.4'
p9472
sVmzu
p9473
S'127.3.5.4'
p9474
sVmzw
p9475
S'63.1.3.5.2.2.2.4.3.2'
p9476
sVmzp
p9477
S'126.43'
p9478
sVmzq
p9479
S'37.4.2.1.2.1.2.1.1'
p9480
sVphm
p9481
S'63.1.3.1.2.2.6.1.10.9.2'
p9482
sVmzs
p9483
S'133.13.8'
p9484
sVmkl
p9485
S'63.1.3.1.4.3.1.9'
p9486
sVpha
p9487
S'38.1.3.1'
p9488
sVcof
p9489
S'45.2.2'
p9490
sVphg
p9491
S'33.1.2.2.2.2.4'
p9492
sVior
p9493
S'1.6.2.1.2.1.2.1'
p9494
sVmzz
p9495
S'37.4.3.5.1.5.3.1.2.3.6'
p9496
sVnoa
p9497
S'101.2'
p9498
sVmzd
p9499
S'63.1.3.1.2.2.6.2.1.23.1'
p9500
sVmze
p9501
S'60.32.5.6'
p9502
sVrji
p9503
S'151.2.7.2.1.4.1'
p9504
sVmza
p9505
S'83.1.1.2.2.33'
p9506
sVwtk
p9507
S'147.7.2.7'
p9508
sVmzc
p9509
S'137.76'
p9510
sVmzm
p9511
S'63.1.3.5.1.1.6.3.1.3'
p9512
sVphq
p9513
S'151.2.3.3.4.13'
p9514
sVmzh
p9515
S'7.2.1'
p9516
sVmzk
p9517
S'63.1.3.1.2.1.3.1.3.2'
p9518
sVnph
p9519
S'151.2.5.1.2.9'
p9520
sVunk
p9521
S'142.3.2'
p9522
sVdbd
p9523
S'63.1.3.5.1.1.9.3.3.1'
p9524
sVwyr
p9525
S'76.6.6'
p9526
sVfom
p9527
S'63.1.3.1.2.2.6.2.3.56.1'
p9528
sVtjs
p9529
S'151.2.4.7.2'
p9530
sVwyy
p9531
S'37.4.3.5.1.2.1.1.2.2.1'
p9532
sVjmn
p9533
S'151.2.5.4.7.5'
p9534
sVmmk
p9535
S'141.3.1.2.1.2'
p9536
sVfni
p9537
S'63.1.3.5.1.1.7.1.4'
p9538
sVwya
p9539
S'50.1.1.2.1.1'
p9540
sVnoy
p9541
S'63.1.3.5.1.1.7.1.8'
p9542
sVxed
p9543
S'1.2.1.1.4.1.1'
p9544
sVmfc
p9545
S'63.1.3.5.1.2.4.1.1.3'
p9546
sVmfe
p9547
S'133.6.6'
p9548
sVmff
p9549
S'63.1.3.1.2.2.1.6'
p9550
sVmfg
p9551
S'63.3.2.1.1.1.2.1.2.4'
p9552
sVmfh
p9553
S'1.2.1.1.5.8'
p9554
sVmfi
p9555
S'1.2.1.1.4.2.2.1'
p9556
sVmfj
p9557
S'1.2.1.1.5.10'
p9558
sVmfk
p9559
S'1.2.1.1.5.12'
p9560
sVmfn
p9561
S'63.1.3.1.3.2.4.3.1.3.2.1'
p9562
sVmfo
p9563
S'63.1.3.1.2.2.5.1'
p9564
sVxeu
p9565
S'60.11.1.2.1'
p9566
sVmfr
p9567
S'29.2.1.1.5'
p9568
sVtcm
p9569
S'60.33.1'
p9570
sVmft
p9571
S'37.4.3.5.1.1.1.1.2.2'
p9572
sVmfu
p9573
S'63.1.3.1.2.2.6.1.7.7.1'
p9574
sVxer
p9575
S'62.1.4'
p9576
sVtci
p9577
S'20.1.2.10'
p9578
sVtcg
p9579
S'60.19.3'
p9580
sVtcd
p9581
S'63.1.3.4.1.1.3'
p9582
sVtcb
p9583
S'14.1.2.15'
p9584
sVtcc
p9585
S'67.3.3.2.2.1'
p9586
sVtca
p9587
S'126.65'
p9588
sVsku
p9589
S'37.4.3.5.1.2.1.5.1.1.1'
p9590
sVskt
p9591
S'63.1.3.1.2.2.6.2.3.9.1'
p9592
sVskw
p9593
S'133.4.5'
p9594
sVskv
p9595
S'8.2.1.2.1'
p9596
sVadr
p9597
S'37.4.3.3.1'
p9598
sVskp
p9599
S'37.4.13.1.1.5'
p9600
sVsks
p9601
S'60.22.1.7.2.1'
p9602
sVwed
p9603
S'37.4.3.5.1.5.3.1.2.2.2.8'
p9604
sVgmb
p9605
S'37.4.3.5.1.2.3.2.1.2.4'
p9606
sVgma
p9607
S'29.15.1'
p9608
sVtgu
p9609
S'127.3.6.3'
p9610
sVadz
p9611
S'37.4.3.5.1.5.2.1.1.2.1'
p9612
sVjas
p9613
S'37.4.6.2'
p9614
sVskz
p9615
S'37.4.3.7.3'
p9616
sVske
p9617
S'37.4.3.5.1.2.1.5.3.2.28'
p9618
sVwer
p9619
S'60.32.2.2.4'
p9620
sVskg
p9621
S'37.4.5.2.2.7'
p9622
sVgmx
p9623
S'63.1.3.1.2.2.6.1.4.6.1'
p9624
sVwew
p9625
S'37.4.3.10.2.8'
p9626
sVskc
p9627
S'60.13.1.1.3'
p9628
sVwet
p9629
S'37.4.3.12.2.5.3'
p9630
sVskm
p9631
S'60.13.1.3.1'
p9632
sVado
p9633
S'127.3.1.1'
p9634
sVsko
p9635
S'37.4.18.5.2'
p9636
sVgmu
p9637
S'60.22.1.1.3'
p9638
sVski
p9639
S'37.4.3.3.28'
p9640
sVskk
p9641
S'33.1.2.1.5.4.4'
p9642
sVadi
p9643
S'151.2.1.8.1'
p9644
sVyyz
p9645
S'151.2.3.3.2.3'
p9646
sVamb
p9647
S'63.1.3.1.2.2.9.2'
p9648
sVsel
p9649
S'92.6.2.2'
p9650
sVbeq
p9651
S'63.1.3.1.2.2.6.1.5.1.1'
p9652
sVzpx
p9653
S'83.1.2.2.2.30'
p9654
sVnvo
p9655
S'63.1.3.1.2.2.6.2.1.10.1'
p9656
sVnvm
p9657
S'60.32.3.1.3'
p9658
sVmws
p9659
S'63.1.3.1.2.2.6.1.2.9.1'
p9660
sVdba
p9661
S'126.8'
p9662
sVnvh
p9663
S'37.4.3.5.1.2.1.5.2.2.5'
p9664
sVkgi
p9665
S'137.110'
p9666
sVmho
p9667
S'63.1.3.1.2.2.6.1.7.15.1'
p9668
sVxsp
p9669
S'60.22.1.2.15'
p9670
sVxsq
p9671
S'63.1.3.1.2.2.6.1.11.1.6'
p9672
sVmhj
p9673
S'43.2.1'
p9674
sVmhi
p9675
S'67.2.1.4.3.1'
p9676
sVmhf
p9677
S'60.13.1.1.4'
p9678
sVmhg
p9679
S'29.17.2.1'
p9680
sVmhd
p9681
S'35.2.1'
p9682
sVmhe
p9683
S'33.1.1.4.1'
p9684
sVmhb
p9685
S'63.1.3.1.2.2.6.2.2.12.1'
p9686
sVmhc
p9687
S'15.2.3.2.1'
p9688
sVesq
p9689
S'126.22'
p9690
sVnmr
p9691
S'63.1.3.5.1.1.6.4.1'
p9692
sVmhz
p9693
S'37.4.3.5.2.2.2.3.1'
p9694
sVmhx
p9695
S'151.2.3.1.1.4'
p9696
sVmhy
p9697
S'37.4.5.2.1.2.3'
p9698
sVmhw
p9699
S'63.1.3.1.2.2.6.1.7.14.1'
p9700
sVxsi
p9701
S'37.4.3.5.1.5.2.2.2.7.1'
p9702
sVotr
p9703
S'63.2.1.2.1.1.3.1'
p9704
sVmhs
p9705
S'37.4.3.4.2.1'
p9706
sVopy
p9707
S'126.49'
p9708
sVmhq
p9709
S'4.2.1'
p9710
sVkdl
p9711
S'63.1.3.1.9.2.5.3'
p9712
sVnjb
p9713
S'151.2.5.1.2.8'
p9714
sVnja
p9715
S'1.2.1.1.8.9'
p9716
sVkdh
p9717
S'63.1.3.5.2.2.2.4.1.7'
p9718
sVkdi
p9719
S'67.3.3.3.2.2.2.1'
p9720
sVkdj
p9721
S'67.3.3.1.2.2.2.1'
p9722
sVkdk
p9723
S'37.4.3.5.1.2.1.4.3.1.2'
p9724
sVkde
p9725
S'63.1.3.1.2.2.6.1.11.15.2'
p9726
sVkdf
p9727
S'37.4.3.5.1.5.2.2.2.5.2'
p9728
sVkdg
p9729
S'63.1.3.1.2.2.6.1.9.11.1'
p9730
sVnjo
p9731
S'151.2.5.4.2.1'
p9732
sVnjn
p9733
S'151.2.5.4.8.2'
p9734
sVnjm
p9735
S'151.2.5.4.1.1'
p9736
sVkdc
p9737
S'63.1.3.1.2.2.6.1.4.29.1'
p9738
sVjle
p9739
S'63.2.4.1.3.2'
p9740
sVnjr
p9741
S'63.1.3.1.2.1.3.1.4.1'
p9742
sVkdx
p9743
S'63.1.3.5.1.1.3.1'
p9744
sVkdy
p9745
S'48.2.3.8'
p9746
sVnjt
p9747
S'107.1'
p9748
sVkdt
p9749
S'33.1.2.2.3.2.1'
p9750
sVvsi
p9751
S'137.82'
p9752
sVnjy
p9753
S'63.1.3.1.2.2.6.2.1.46.1'
p9754
sVkdw
p9755
S'60.25.1'
p9756
sVpsd
p9757
S'137.99'
p9758
sVkdr
p9759
S'80.5.2.2'
p9760
sVtmq
p9761
S'37.4.3.5.1.5.2.4.2.6'
p9762
sVtms
p9763
S'63.2.2.2'
p9764
sVess
p9765
S'10.2.2.1'
p9766
sVtmu
p9767
S'122.4.1.2'
p9768
sVtmv
p9769
S'63.1.3.1.2.2.6.2.3.13.1'
p9770
sVtmy
p9771
S'37.4.3.5.1.5.2.2.2.9.1'
p9772
sVxok
p9773
S'62.3.1'
p9774
sVese
p9775
S'24.1.1'
p9776
sVtmd
p9777
S'103.1'
p9778
sViso
p9779
S'63.1.3.1.5.4.2'
p9780
sVtmf
p9781
S'3.1.1'
p9782
sVtmg
p9783
S'133.13.13'
p9784
sVeso
p9785
S'137.33'
p9786
sVtmi
p9787
S'37.4.3.5.1.2.1.5.3.5.20'
p9788
sVtmj
p9789
S'48.1.2.2.2'
p9790
sVesl
p9791
S'137.32'
p9792
sVesk
p9793
S'10.2.1.5'
p9794
sVblb
p9795
S'77.1'
p9796
sVesi
p9797
S'10.2.1.4'
p9798
sVtmo
p9799
S'33.1.1.4.4'
p9800
sVxay
p9801
S'37.4.13.2.4.1.1.2'
p9802
sVytl
p9803
S'151.2.3.3.1.24'
p9804
sVhow
p9805
S'151.2.3.3.4.8'
p9806
sVswj
p9807
S'63.1.3.1.2.2.6.2.2.25.1'
p9808
sVotu
p9809
S'57.2'
p9810
sVdcr
p9811
S'133.4.3'
p9812
sVkpj
p9813
S'78.1'
p9814
sVkrz
p9815
S'20.1.2.7'
p9816
sVndh
p9817
S'63.1.3.1.2.2.6.1.9.17.1'
p9818
sVkrx
p9819
S'63.1.1.2.1.2.2.2.1'
p9820
sVndj
p9821
S'63.1.3.1.2.2.6.1.4.12.1'
p9822
sVndl
p9823
S'63.1.3.1.2.2.6.2.3.11.3'
p9824
sVndo
p9825
S'63.1.3.1.2.2.6.1.12.9.1'
p9826
sVndn
p9827
S'63.1.3.1.2.2.6.2.3.42.1'
p9828
sVkrr
p9829
S'33.1.2.1.5.1.2'
p9830
sVkrs
p9831
S'67.2.2.2.2'
p9832
sVndc
p9833
S'63.1.3.1.2.2.6.1.13.11.1'
p9834
sVkrv
p9835
S'33.1.2.1.5.1.1'
p9836
sVkrw
p9837
S'63.1.3.3.5.4.1.3'
p9838
sVndg
p9839
S'63.1.3.1.2.2.6.1.11.8.1'
p9840
sVkru
p9841
S'141.2.4'
p9842
sVndx
p9843
S'60.37.1.2.1'
p9844
sVndz
p9845
S'63.1.3.5.1.2.4.2.3.2.1'
p9846
sVkrn
p9847
S'63.1.3.3.5.4.1.4'
p9848
sVkrl
p9849
S'92.1.6'
p9850
sVkrm
p9851
S'63.1.1.3.2.1.1.2.1'
p9852
sVndq
p9853
S'63.1.3.1.2.2.6.1.12.4.1'
p9854
sVndp
p9855
S'67.2.1.3.7'
p9856
sVsfs
p9857
S'137.115'
p9858
sVndr
p9859
S'63.1.3.1.2.1.3.2.1'
p9860
sVkrf
p9861
S'37.4.3.5.1.2.1.5.3.2.11'
p9862
sVswc
p9863
S'63.1.3.1.2.2.6.1.4.16.1'
p9864
sVkrd
p9865
S'37.4.3.12.1.5'
p9866
sVkre
p9867
S'62.2.3'
p9868
sVswb
p9869
S'63.1.3.1.2.2.6.1.4.20.1'
p9870
sVowi
p9871
S'21.6'
p9872
sVxat
p9873
S'86.1'
p9874
sVlzn
p9875
S'151.2.5.1.2.6'
p9876
sVzmf
p9877
S'63.1.3.1.2.2.6.2.2.38.1'
p9878
sVkgo
p9879
S'67.5.4'
p9880
sVxav
p9881
S'62.1.3'
p9882
sVjmw
p9883
S'60.36.2.3'
p9884
sVbrd
p9885
S'151.2.7.2.1.5.1'
p9886
sVswf
p9887
S'63.1.3.5.1.2.4.2.3.2.2'
p9888
sVguu
p9889
S'120.4'
p9890
sVvaj
p9891
S'118.1.3'
p9892
sVyri
p9893
S'8859'
p9894
sVvai
p9895
S'63.3.2.1.1.1.2.2.2'
p9896
sVvan
p9897
S'52.6.3.8'
p9898
sVvao
p9899
S'37.4.3.5.1.2.1.5.3.4.14'
p9900
sVval
p9901
S'37.4.3.5.1.5.2.1.4.1.1.5'
p9902
sVvam
p9903
S'8.2.1.1.1'
p9904
sVyra
p9905
S'147.11.1'
p9906
sVyrb
p9907
S'60.32.7.5'
p9908
sVavo
p9909
S'882'
p9910
sVvag
p9911
S'63.1.3.5.2.2.2.4.3.9'
p9912
sVvay
p9913
S'151.2.7.2.2.2.10'
p9914
sVtsi
p9915
S'64.1'
p9916
sVrcf
p9917
S'133.6.7'
p9918
sVyrs
p9919
S'37.4.3.5.1.5.2.3.2.11'
p9920
sVyrw
p9921
S'60.22.1.7.4.6'
p9922
sVbuz
p9923
S'63.1.3.1.2.2.1.1'
p9924
sVbuy
p9925
S'63.1.1.3.2.1.1.1.2'
p9926
sVcpi
p9927
S'107.3.2.1'
p9928
sVaai
p9929
S'37.4.3.5.1.5.3.1.2.2.1.6'
p9930
sVbup
p9931
S'37.4.2.1.2.2.1.2.1'
p9932
sVbuq
p9933
S'60.22.1.3.1'
p9934
sVbuv
p9935
S'136.2'
p9936
sVbuw
p9937
S'63.1.3.1.2.2.6.2.2.46.1'
p9938
sVbut
p9939
S'52.3.2'
p9940
sVbuu
p9941
S'63.1.3.1.2.2.6.1.1.16.1'
p9942
sVbuj
p9943
S'63.1.3.1.9.2.1.3'
p9944
sVbuk
p9945
S'37.4.3.5.1.5.2.1.2.1'
p9946
sVbuh
p9947
S'38.1.1.4'
p9948
sVbui
p9949
S'63.1.3.1.2.2.6.2.3.47.1'
p9950
sVbun
p9951
S'63.1.1.3.2.1.1.2.2'
p9952
sVbuo
p9953
S'16.1.2'
p9954
sVbul
p9955
S'46.3.2.2.1.1'
p9956
sVduq
p9957
S'37.4.5.2.1.2.1'
p9958
sVbub
p9959
S'63.1.3.5.1.1.7.1.3'
p9960
sVbuc
p9961
S'37.4.5.2.2.1'
p9962
sVbuf
p9963
S'63.1.3.1.2.2.6.2.3.16.1'
p9964
sVbug
p9965
S'37.4.18.1.1'
p9966
sVbci
p9967
S'63.1.3.4.2.5.6.1.2.1.4'
p9968
sVlvu
p9969
S'37.4.3.3.15'
p9970
sVdma
p9971
S'63.1.3.1.2.2.6.2.2.19.1'
p9972
sVdmb
p9973
S'63.1.3.2.10'
p9974
sVdmc
p9975
S'60.22.1.3.2'
p9976
sVlso
p9977
S'137.71'
p9978
sVdme
p9979
S'1.2.1.1.5.3'
p9980
sVlvs
p9981
S'46.3.1.1.2'
p9982
sVdmm
p9983
S'63.1.3.5.1.1.7.4.2.1.1'
p9984
sVaeu
p9985
S'151.2.3.3.4.1'
p9986
sVdmo
p9987
S'63.1.3.1.2.2.1.3'
p9988
sVhni
p9989
S'151.2.3.3.4.7'
p9990
sVdmr
p9991
S'37.4.3.12.2.1.1'
p9992
sVdms
p9993
S'37.4.2.3.2.2.2'
p9994
sVlva
p9995
S'37.4.3.12.1.8'
p9996
sVdmu
p9997
S'99.2.1'
p9998
sVdmv
p9999
S'37.4.13.4.1.3.1'
p10000
sVdmx
p10001
S'63.1.3.1.2.2.6.1.13.8.1'
p10002
sVdmy
p10003
S'145.3.1.1'
p10004
sVssx
p10005
S'60.12.1.7'
p10006
sVmyy
p10007
S'68.2.3'
p10008
sVmyx
p10009
S'63.1.3.1.2.2.6.1.6.22.3'
p10010
sVpij
p10011
S'8840'
p10012
sVbcg
p10013
S'63.1.1.3.2.3.1.1'
p10014
sVpil
p10015
S'63.1.3.5.2.2.1.3.5.2'
p10016
sVinz
p10017
S'117.1.2'
p10018
sVxxr
p10019
S'119.1'
p10020
sVint
p10021
S'151.2.3.1.2.3'
p10022
sVmyp
p10023
S'51.1'
p10024
sVmys
p10025
S'1.6.2.1.2.1.2.2'
p10026
sVpic
p10027
S'63.1.3.1.2.2.6.2.2.45.1'
p10028
sVmyu
p10029
S'76.4.2'
p10030
sVyot
p10031
S'63.1.3.5.1.1.6.3.2.5'
p10032
sVmyw
p10033
S'37.4.3.5.1.5.3.2.2.1.3'
p10034
sVmyv
p10035
S'92.3.1'
p10036
sVpix
p10037
S'37.4.3.5.1.5.2.1.4.1.1.4'
p10038
sVpiy
p10039
S'1.2.4.1.2.2.2.5'
p10040
sVmyk
p10041
S'63.1.3.5.2.5.5.1'
p10042
sVino
p10043
S'60.17.1.5.1'
p10044
sVmym
p10045
S'67.3.1.4.2.1.2.1.1'
p10046
sVmyl
p10047
S'37.4.2.2.1.1.6'
p10048
sVmyo
p10049
S'1.5.1.2.2.1.1'
p10050
sVpip
p10051
S'1.2.4.1.2.2.2.4'
p10052
sVmyc
p10053
S'63.1.3.1.2.2.6.1.1.8.1'
p10054
sVing
p10055
S'14.1.2.5'
p10056
sVmye
p10057
S'63.1.3.1.2.2.6.2.2.17.1'
p10058
sVajw
p10059
S'1.2.4.2.2.1'
p10060
sVpiv
p10061
S'37.4.3.5.1.2.1.1.1.2.1.2.3.9'
p10062
sVmyf
p10063
S'1.5.1.3.1.1'
p10064
sVkqr
p10065
S'37.4.13.4.1.2.4'
p10066
sVmgp
p10067
S'151.2.7.2.1.2.2.1'
p10068
sVoac
p10069
S'72.2.1.2.1'
p10070
sVgay
p10071
S'37.4.14.1'
p10072
sVoaa
p10073
S'72.2.1.1.2'
p10074
sVhps
p10075
S'137.49'
p10076
sVanf
p10077
S'63.1.3.4.1.3.2'
p10078
sVtye
p10079
S'63.3.1.1.3.1'
p10080
sVhpo
p10081
S'151.2.3.1.1.2'
p10082
sVwxa
p10083
S'8857'
p10084
sVgau
p10085
S'141.1.2.2'
p10086
sVyme
p10087
S'116.2'
p10088
sVubu
p10089
S'60.5.2.1.3'
p10090
sVbcz
p10091
S'63.1.1.2.3.1.1'
p10092
sVubr
p10093
S'37.4.3.5.1.5.3.1.2.2.1.7'
p10094
sVekm
p10095
S'63.1.3.1.2.2.6.2.1.52.1'
p10096
sVuby
p10097
S'79.2.3.1'
p10098
sVnrf
p10099
S'46.8.2.2.2.1.1.2.1.1.3'
p10100
sVole
p10101
S'151.2.7.1.4'
p10102
sVnre
p10103
S'151.2.5.4.1.8'
p10104
sVuba
p10105
S'63.1.3.1.3.1.7'
p10106
sVbly
p10107
S'63.1.3.5.2.2.1.3.4.1.1'
p10108
sVmzx
p10109
S'142.3.3'
p10110
sVubi
p10111
S'1.2.2.2.1.1.8'
p10112
sVhna
p10113
S'1.2.1.1.7.6'
p10114
sVise
p10115
S'137.61'
p10116
sVbcn
p10117
S'63.1.3.5.1.1.6.3.2.1'
p10118
sVbco
p10119
S'60.4.5'
p10120
sVbch
p10121
S'37.4.3.5.1.5.2.2.1.1.1'
p10122
sVilb
p10123
S'63.1.3.1.2.2.6.1.9.14.1'
p10124
sVbcj
p10125
S'29.9.1'
p10126
sVbck
p10127
S'29.1.1'
p10128
sVbcd
p10129
S'37.4.3.2.1.1'
p10130
sVhnh
p10131
S'102.1.1.3.2'
p10132
sVbcf
p10133
S'60.20.1'
p10134
sVhnj
p10135
S'38.1.2.5'
p10136
sVbca
p10137
S'151.2.4.1.1'
p10138
sVbcb
p10139
S'63.1.1.2.3.1.3'
p10140
sVgal
p10141
S'37.4.3.12.1.1'
p10142
sVhnu
p10143
S'33.1.9.2.1'
p10144
sVbcy
p10145
S'1.2.1.1.8.1'
p10146
sVsst
p10147
S'60.5.1.7'
p10148
sVeot
p10149
S'63.1.3.4.2.5.6.4.2'
p10150
sVbct
p10151
S'67.2.1.3.1'
p10152
sVbcu
p10153
S'37.4.3.5.1.5.2.2.2.1.1.1'
p10154
sVmzy
p10155
S'137.85'
p10156
sVbcw
p10157
S'1.2.1.1.3.1'
p10158
sVbcp
p10159
S'63.1.3.1.2.2.6.1.1.22.1'
p10160
sVbcq
p10161
S'1.5.1.2.1.2.2.1'
p10162
sVbcr
p10163
S'14.1.2.2'
p10164
sVmcz
p10165
S'60.22.1.2.6'
p10166
s.